
build/main.elf:     file format elf32-littleriscv

Contents of section .text:
 8000 37810000 13010100 13050000 93050000  7...............
 8010 13066008 ef104018 130101f8 232e8106  ..`...@.....#...
 8020 232c2107 232a3107 23284107 23265107  #,!.#*1.#(A.#&Q.
 8030 13040108 232ea4f8 232cb4f8 232ac4f8  ....#...#,..#*..
 8040 2328d4f8 2326e4f8 2324f4f8 032784f9  #(..#&..#$...'..
 8050 93070700 9387f7ff 2322f4fc 130a0700  ........#"......
 8060 930a0000 9357da01 939e3a00 b3eed701  .....W....:.....
 8070 131e3a00 832644f9 93870600 9387f7ff  ..:..&D.........
 8080 2320f4fc 13890600 93090000 9357d901  # ...........W..
 8090 93933900 b3e37700 13133900 032644f9  ..9...w...9..&D.
 80a0 93070600 9387f7ff 232ef4fa 130f0600  ........#.......
 80b0 930f0000 9357bf01 93985f00 b3e81701  .....W...._.....
 80c0 13185f00 832744f9 232ef4fc 8327c4f9  .._..'D.#....'..
 80d0 232cf4fc 832784f9 232af4fc 232804fc  #,...'..#*..#(..
 80e0 232604fc 232404fc 6f000020 8327c4fd  #&..#$..o.. .'..
 80f0 93050001 63f4f500 93070001 232cf4fa  ....c.......#,..
 8100 6f00401b 832784fd 93050001 63f4f500  o.@..'......c...
 8110 93070001 232af4fa 6f008016 832744fd  ....#*..o....'D.
 8120 93050001 63f4f500 93070001 2328f4fa  ....c.......#(..
 8130 832784fc 93870701 832584f9 b3b7b700  .'.......%......
 8140 93c71700 a307f4fa 8327c4fc b307f702  .........'......
 8150 832504f9 b385f500 832784fc b387f500  .%.......'......
 8160 2324f4fa 832584fc 832704fb b387f500  #$...%...'......
 8170 9387f7ff b387f602 8325c4f8 b385f500  .........%......
 8180 832704fd b387f500 2322f4fa 8327c4fc  .'......#"...'..
 8190 b307f602 93972700 832584f8 b385f500  ......'..%......
 81a0 832704fd 93972700 b387f500 2320f4fa  .'....'.....# ..
 81b0 b7070090 9387c700 832584f9 23a0b700  .........%..#...
 81c0 b7070090 93870701 832544f9 23a0b700  .........%D.#...
 81d0 b7070090 832584fa 23a0b700 b7070090  .....%..#.......
 81e0 93874700 832544fa 23a0b700 b7070090  ..G..%D.#.......
 81f0 93878700 832504fa 23a0b700 832784fc  .....%..#....'..
 8200 63960700 93072000 6f008000 93070000  c..... .o.......
 8210 8345f4fa b3e5b700 b7070090 93874701  .E............G.
 8220 23a0b700 832704fb 93955700 832744fb  #....'....W..'D.
 8230 33e5f500 832784fb 9395a700 b7070090  3....'..........
 8240 93878701 b365b500 23a0b700 13000000  .....e..#.......
 8250 b7070090 83a50700 93071000 e38af5fe  ................
 8260 832544fd 832704fb b387f540 232af4fc  .%D..'.....@#*..
 8270 832584f9 832744fd b387f540 2324f4fc  .%...'D....@#$..
 8280 832744fd e39c07e8 232404fc 832584fd  .'D.....#$...%..
 8290 832744fb b387f540 232cf4fc 8325c4f9  .'D....@#,...%..
 82a0 832784fd b387f540 2326f4fc 832784f9  .'.....@#&...'..
 82b0 232af4fc 832784fd e39607e4 232604fc  #*...'......#&..
 82c0 8325c4fd 832784fb b387f540 232ef4fc  .%...'.....@#...
 82d0 832544f9 8327c4fd b387f540 2328f4fc  .%D..'.....@#(..
 82e0 8327c4f9 232cf4fc 8327c4fd e39007e0  .'..#,...'......
 82f0 13000000 b7070090 93878701 03a70700  ................
 8300 93071000 e318f7fe 13000000 13000000  ................
 8310 0324c107 03298107 83294107 032a0107  .$...)...)A..*..
 8320 832ac106 13010108 67800000 130101fa  .*......g.......
 8330 232e8104 232c2105 232a3105 23284105  #...#,!.#*1.#(A.
 8340 23265105 13040106 232ea4fa 232cb4fa  #&Q.....#...#,..
 8350 232ac4fa 2328d4fa 2326e4fa 2324f4fa  #*..#(..#&..#$..
 8360 032784fb 9307f7ff 2328f4fc 93070700  .'......#(......
 8370 138a0700 930a0000 9357da01 939e3a00  .........W....:.
 8380 b3eed701 131e3a00 832644fb 9387f6ff  ......:..&D.....
 8390 2326f4fc 93870600 13890700 93090000  #&..............
 83a0 9357d901 93933900 b3e37700 13133900  .W....9...w...9.
 83b0 832744fb 1386f7ff 2324c4fc 13860700  .'D.....#$......
 83c0 130f0600 930f0000 1356bf01 93985f00  .........V...._.
 83d0 b3681601 13185f00 232e04fc 6f004011  .h...._.#...o.@.
 83e0 232c04fc 6f00400f 93850700 0326c4fd  #,..o.@......&..
 83f0 3386c502 13162600 832584fa b385c500  3.....&..%......
 8400 032684fd 13162600 3386c500 23200600  .&....&.3...# ..
 8410 232a04fc 6f00c00a 93050700 0326c4fd  #*..o........&..
 8420 3386c502 832504fb b385c500 032644fd  3....%.......&D.
 8430 3386c500 03060600 13050600 93850600  3...............
 8440 032644fd 3386c502 8325c4fa b385c500  .&D.3....%......
 8450 032684fd 3386c500 03060600 b305c502  .&..3...........
 8460 13850700 0326c4fd 3306c502 13162600  .....&..3.....&.
 8470 032584fa 3305c500 032684fd 13162600  .%..3....&....&.
 8480 3306c500 03260600 13880700 0325c4fd  3....&.......%..
 8490 3305a802 13152500 032884fa 3305a800  3.....%..(..3...
 84a0 b385c500 032684fd 13162600 3306c500  .....&....&.3...
 84b0 2320b600 032644fd 13061600 232ac4fc  # ...&D.....#*..
 84c0 832544fd 032684fb e3c8c5f4 032684fd  .%D..&.......&..
 84d0 13061600 232cc4fc 832584fd 032644fb  ....#,...%...&D.
 84e0 e3c4c5f0 0326c4fd 13061600 232ec4fc  .....&......#...
 84f0 8325c4fd 0326c4fb e3c4c5ee 13000000  .%...&..........
 8500 13000000 0324c105 03298105 83294105  .....$...)...)A.
 8510 032a0105 832ac104 13010106 67800000  .*...*......g...
 8520 130101fe 232e8100 13040102 f31700b0  ....#...........
 8530 2326f4fe 8327c4fe 13850700 0324c101  #&...'.......$..
 8540 13010102 67800000 130101fe 232e8100  ....g.......#...
 8550 13040102 2326a4fe b7070080 0327c4fe  ....#&.......'..
 8560 23ace700 13000000 0324c101 13010102  #........$......
 8570 67800000 130101fe 232e8100 13040102  g.......#.......
 8580 2326a4fe 13000000 b7070080 83a74701  #&............G.
 8590 93f71700 e38a07fe b7070080 0327c4fe  .............'..
 85a0 23a0e700 13000000 0324c101 13010102  #........$......
 85b0 67800000 130101fd 23261102 23248102  g.......#&..#$..
 85c0 13040103 232ea4fc a30704fe 6f000001  ....#.......o...
 85d0 8347f4fe 13850700 eff0dff9 8327c4fd  .G...........'..
 85e0 13871700 232ee4fc 83c70700 a307f4fe  ....#...........
 85f0 8347f4fe e39e07fc 13000000 13000000  .G..............
 8600 8320c102 03248102 13010103 67800000  . ...$......g...
 8610 130101fe 232e8100 13040102 13000000  ....#...........
 8620 b7070080 83a74701 93f72700 e38a07fe  ......G...'.....
 8630 b7070080 83a74700 a307f4fe b7070080  ......G.........
 8640 03a74701 b7070080 1377d7ff 23aae700  ..G......w..#...
 8650 8347f4fe 13850700 0324c101 13010102  .G.......$......
 8660 67800000 130101fc 232e1102 232c8102  g.......#...#,..
 8670 13040104 93070500 a307f4fc 232604fe  ............#&..
 8680 a30504fe 8307f4fc 63de0700 93071000  ........c.......
 8690 a305f4fe 8347f4fc b307f040 93f7f70f  .....G.....@....
 86a0 a307f4fc 8307f4fc 63900706 1305002d  ........c......-
 86b0 eff05ff0 13050003 eff0dfeb 6f004012  .._.........o.@.
 86c0 0307f4fc 9307a000 b367f702 93978701  .........g......
 86d0 93d78741 13f7f70f 8327c4fe 93861700  ...A.....'......
 86e0 2326d4fe 13070703 1377f70f 938707ff  #&.......w......
 86f0 b3878700 2384e7fe 0307f4fc 9307a000  ....#...........
 8700 b347f702 a307f4fc 8307f4fc e34af0fa  .G...........J..
 8710 8347b4fe 63860704 1305d002 eff09fe5  .G..c...........
 8720 0327c4fe 93071000 63cee706 13071000  .'......c.......
 8730 8327c4fe b307f740 2322f4fe 6f008001  .'.....@#"..o...
 8740 13050002 eff01fe3 832744fe 9387f7ff  .........'D.....
 8750 2322f4fe 832744fe e3d407fe 6f008004  #"...'D.....o...
 8760 13050002 eff01fe1 0327c4fe 93071000  .........'......
 8770 63cae702 13071000 8327c4fe b307f740  c........'.....@
 8780 2320f4fe 6f008001 13050002 eff09fde  # ..o...........
 8790 832704fe 9387f7ff 2320f4fe 832704fe  .'......# ...'..
 87a0 e3d407fe 8327c4fe 9387f7ff 232ef4fc  .....'......#...
 87b0 6f008002 8327c4fd 938707ff b3878700  o....'..........
 87c0 83c787fe 13850700 eff0dfda 8327c4fd  .............'..
 87d0 9387f7ff 232ef4fc 8327c4fd e3dc07fc  ....#....'......
 87e0 8320c103 03248103 13010104 67800000  . ...$......g...
 87f0 130101fc 232e1102 232c8102 13040104  ....#...#,......
 8800 2326a4fc 232604fe a30504fe 8327c4fc  #&..#&.......'..
 8810 63dc0700 93071000 a305f4fe 8327c4fc  c............'..
 8820 b307f040 2326f4fc 8327c4fc 639c0704  ...@#&...'..c...
 8830 1305402d eff01fd8 13050003 eff09fd3  ..@-............
 8840 6f00c011 0327c4fc 9307a000 b367f702  o....'.......g..
 8850 13f7f70f 8327c4fe 93861700 2326d4fe  .....'......#&..
 8860 13070703 1377f70f 938707ff b3878700  .....w..........
 8870 2380e7fe 0327c4fc 9307a000 b347f702  #....'.......G..
 8880 2326f4fc 8327c4fc e34ef0fa 8347b4fe  #&...'...N...G..
 8890 63860704 1305d002 eff0dfcd 0327c4fe  c............'..
 88a0 93074000 63cee706 13074000 8327c4fe  ..@.c.....@..'..
 88b0 b307f740 2322f4fe 6f008001 13050002  ...@#"..o.......
 88c0 eff05fcb 832744fe 9387f7ff 2322f4fe  .._..'D.....#"..
 88d0 832744fe e3d407fe 6f008004 13050002  .'D.....o.......
 88e0 eff05fc9 0327c4fe 93074000 63cae702  .._..'....@.c...
 88f0 13074000 8327c4fe b307f740 2320f4fe  ..@..'.....@# ..
 8900 6f008001 13050002 eff0dfc6 832704fe  o............'..
 8910 9387f7ff 2320f4fe 832704fe e3d407fe  ....# ...'......
 8920 8327c4fe 9387f7ff 232ef4fc 6f008002  .'......#...o...
 8930 8327c4fd 938707ff b3878700 83c707fe  .'..............
 8940 13850700 eff01fc3 8327c4fd 9387f7ff  .........'......
 8950 232ef4fc 8327c4fd e3dc07fc 8320c103  #....'....... ..
 8960 03248103 13010104 67800000 130101fd  .$......g.......
 8970 23261102 23248102 23229102 13040103  #&..#$..#"......
 8980 232ea4fc 232cb4fc 232ac4fc 832484fd  #...#,..#*...$..
 8990 9386f4ff 2322d4fe 93860400 13880600  ....#"..........
 89a0 93080000 9356b801 93975800 b3e7f600  .....V....X.....
 89b0 13175800 232604fe 6f00400b 1305b005  ..X.#&..o.@.....
 89c0 eff05fbb 232404fe 6f004006 13870400  .._.#$..o.@.....
 89d0 8327c4fe b307f702 93972700 032744fd  .'........'..'D.
 89e0 3307f700 832784fe 93972700 b307f700  3....'....'.....
 89f0 83a70700 2320f4fe 032504fe eff05fdf  ....# ...%...._.
 8a00 832784fd 9387f7ff 032784fe 635af700  .'.......'..cZ..
 8a10 1305c002 eff01fb6 13050002 eff09fb5  ................
 8a20 832784fe 93871700 2324f4fe 032784fe  .'......#$...'..
 8a30 832784fd e34cf7f8 1305d005 eff09fb3  .'...L..........
 8a40 8327c4fd 9387f7ff 0327c4fe 635af700  .'.......'..cZ..
 8a50 1305a000 eff01fb2 1305d000 eff09fb1  ................
 8a60 8327c4fe 93871700 2326f4fe 0327c4fe  .'......#&...'..
 8a70 8327c4fd e344f7f4 13000000 13000000  .'...D..........
 8a80 8320c102 03248102 83244102 13010103  . ...$...$A.....
 8a90 67800000 130101fe 232e1100 232c8100  g.......#...#,..
 8aa0 13040102 232604fe 6f00c002 eff05fb6  ....#&..o....._.
 8ab0 93070500 13870700 8327c4fe 938707ff  .........'......
 8ac0 b3878700 238ce7fe 8327c4fe 93871700  ....#....'......
 8ad0 2326f4fe 0327c4fe 93073000 e3f8e7fc  #&...'....0.....
 8ae0 832784fe 13850700 8320c101 03248101  .'....... ...$..
 8af0 13010102 67800000 130101fc 232e1102  ....g.......#...
 8b00 232c8102 232a9102 13040104 2326a4fc  #,..#*......#&..
 8b10 2324b4fc 2322c4fc 832484fc 9386f4ff  #$..#"...$......
 8b20 2322d4fe 93860400 13880600 93080000  #"..............
 8b30 9356d801 93973800 b3e7f600 13173800  .V....8.......8.
 8b40 8327c4fc 93a7b700 93c71700 a301f4fe  .'..............
 8b50 832784fc 93a7b700 93c71700 2301f4fe  .'..........#...
 8b60 1305c02d eff01fa5 834734fe 63860700  ...-.....G4.c...
 8b70 93075000 6f008000 8327c4fc 232ef4fc  ..P.o....'..#...
 8b80 232604fe 6f00c012 1305002e eff09fa2  #&..o...........
 8b90 834724fe 638c070a 232404fe 6f000004  .G$.c...#$..o...
 8ba0 13870400 8327c4fe b307f702 032744fc  .....'.......'D.
 8bb0 3307f700 832784fe b307f700 83870700  3....'..........
 8bc0 13850700 eff01faa 13050002 eff09f9a  ................
 8bd0 832784fe 93871700 2324f4fe 032784fe  .'......#$...'..
 8be0 93074000 e3dee7fa 1305402e eff09f9c  ..@.......@.....
 8bf0 832784fc 9387b7ff 2324f4fe 6f000004  .'......#$..o...
 8c00 13870400 8327c4fe b307f702 032744fc  .....'.......'D.
 8c10 3307f700 832784fe b307f700 83870700  3....'..........
 8c20 13850700 eff01fa4 13050002 eff09f94  ................
 8c30 832784fe 93871700 2324f4fe 032784fe  .'......#$...'..
 8c40 832784fc e34ef7fa 6f004005 232404fe  .'...N..o.@.#$..
 8c50 6f000004 13870400 8327c4fe b307f702  o........'......
 8c60 032744fc 3307f700 832784fe b307f700  .'D.3....'......
 8c70 83870700 13850700 eff0df9e 13050002  ................
 8c80 eff05f8f 832784fe 93871700 2324f4fe  .._..'......#$..
 8c90 032784fe 832784fc e34ef7fa 1305c02e  .'...'...N......
 8ca0 eff05f91 8327c4fe 93871700 2326f4fe  .._..'......#&..
 8cb0 0327c4fe 8327c4fd e348f7ec 834734fe  .'...'...H...G4.
 8cc0 63880714 1305002f eff0df8e 8327c4fc  c....../.....'..
 8cd0 9387b7ff 2326f4fe 6f00c012 1305002e  ....#&..o.......
 8ce0 eff05f8d 834724fe 638c070a 232404fe  .._..G$.c...#$..
 8cf0 6f000004 13870400 8327c4fe b307f702  o........'......
 8d00 032744fc 3307f700 832784fe b307f700  .'D.3....'......
 8d10 83870700 13850700 eff0df94 13050002  ................
 8d20 eff05f85 832784fe 93871700 2324f4fe  .._..'......#$..
 8d30 032784fe 93074000 e3dee7fa 1305402e  .'....@.......@.
 8d40 eff05f87 832784fc 9387b7ff 2324f4fe  .._..'......#$..
 8d50 6f000004 13870400 8327c4fe b307f702  o........'......
 8d60 032744fc 3307f700 832784fe b307f700  .'D.3....'......
 8d70 83870700 13850700 eff0df8e 13050002  ................
 8d80 eff04fff 832784fe 93871700 2324f4fe  ..O..'......#$..
 8d90 032784fe 832784fc e34ef7fa 6f004005  .'...'...N..o.@.
 8da0 232404fe 6f000004 13870400 8327c4fe  #$..o........'..
 8db0 b307f702 032744fc 3307f700 832784fe  .....'D.3....'..
 8dc0 b307f700 83870700 13850700 eff09f89  ................
 8dd0 13050002 eff00ffa 832784fe 93871700  .........'......
 8de0 2324f4fe 032784fe 832784fc e34ef7fa  #$...'...'...N..
 8df0 1305c02e eff00ffc 8327c4fe 93871700  .........'......
 8e00 2326f4fe 0327c4fe 8327c4fc e348f7ec  #&...'...'...H..
 8e10 1305c02e eff00ffa 13000000 8320c103  ............. ..
 8e20 03248103 83244103 13010104 67800000  .$...$A.....g...
 8e30 130101fc 232e1102 232c8102 232a9102  ....#...#,..#*..
 8e40 13040104 2326a4fc 2324b4fc 2322c4fc  ....#&..#$..#"..
 8e50 832484fc 9386f4ff 2322d4fe 93860400  .$......#"......
 8e60 13880600 93080000 9356b801 93975800  .........V....X.
 8e70 b3e7f600 13175800 8327c4fc 93a7b700  ......X..'......
 8e80 93c71700 a301f4fe 832784fc 93a7b700  .........'......
 8e90 93c71700 2301f4fe 1305c02d eff08ff1  ....#......-....
 8ea0 834734fe 63860700 93075000 6f008000  .G4.c.....P.o...
 8eb0 8327c4fc 232ef4fc 232604fe 6f004014  .'..#...#&..o.@.
 8ec0 1305002e eff00fef 834724fe 6384070c  .........G$.c...
 8ed0 232404fe 6f008004 13870400 8327c4fe  #$..o........'..
 8ee0 b307f702 93972700 032744fc 3307f700  ......'..'D.3...
 8ef0 832784fe 93972700 b307f700 83a70700  .'....'.........
 8f00 13850700 eff0df8e 13050002 eff08fe6  ................
 8f10 832784fe 93871700 2324f4fe 032784fe  .'......#$...'..
 8f20 93074000 e3dae7fa 1305402e eff08fe8  ..@.......@.....
 8f30 832784fc 9387b7ff 2324f4fe 6f008004  .'......#$..o...
 8f40 13870400 8327c4fe b307f702 93972700  .....'........'.
 8f50 032744fc 3307f700 832784fe 93972700  .'D.3....'....'.
 8f60 b307f700 83a70700 13850700 eff05f88  .............._.
 8f70 13050002 eff00fe0 832784fe 93871700  .........'......
 8f80 2324f4fe 032784fe 832784fc e34af7fa  #$...'...'...J..
 8f90 6f00c005 232404fe 6f008004 13870400  o...#$..o.......
 8fa0 8327c4fe b307f702 93972700 032744fc  .'........'..'D.
 8fb0 3307f700 832784fe 93972700 b307f700  3....'....'.....
 8fc0 83a70700 13850700 eff09f82 13050002  ................
 8fd0 eff04fda 832784fe 93871700 2324f4fe  ..O..'......#$..
 8fe0 032784fe 832784fc e34af7fa 1305c02e  .'...'...J......
 8ff0 eff04fdc 8327c4fe 93871700 2326f4fe  ..O..'......#&..
 9000 0327c4fe 8327c4fd e34cf7ea 834734fe  .'...'...L...G4.
 9010 63840716 1305002f eff0cfd9 8327c4fc  c....../.....'..
 9020 9387b7ff 2326f4fe 6f004014 1305002e  ....#&..o.@.....
 9030 eff04fd8 834724fe 6384070c 232404fe  ..O..G$.c...#$..
 9040 6f008004 13870400 8327c4fe b307f702  o........'......
 9050 93972700 032744fc 3307f700 832784fe  ..'..'D.3....'..
 9060 93972700 b307f700 83a70700 13850700  ..'.............
 9070 eff00ff8 13050002 eff0cfcf 832784fe  .............'..
 9080 93871700 2324f4fe 032784fe 93074000  ....#$...'....@.
 9090 e3dae7fa 1305402e eff0cfd1 832784fc  ......@......'..
 90a0 9387b7ff 2324f4fe 6f008004 13870400  ....#$..o.......
 90b0 8327c4fe b307f702 93972700 032744fc  .'........'..'D.
 90c0 3307f700 832784fe 93972700 b307f700  3....'....'.....
 90d0 83a70700 13850700 eff08ff1 13050002  ................
 90e0 eff04fc9 832784fe 93871700 2324f4fe  ..O..'......#$..
 90f0 032784fe 832784fc e34af7fa 6f00c005  .'...'...J..o...
 9100 232404fe 6f008004 13870400 8327c4fe  #$..o........'..
 9110 b307f702 93972700 032744fc 3307f700  ......'..'D.3...
 9120 832784fe 93972700 b307f700 83a70700  .'....'.........
 9130 13850700 eff0cfeb 13050002 eff08fc3  ................
 9140 832784fe 93871700 2324f4fe 032784fe  .'......#$...'..
 9150 832784fc e34af7fa 1305c02e eff08fc5  .'...J..........
 9160 8327c4fe 93871700 2326f4fe 0327c4fe  .'......#&...'..
 9170 8327c4fc e34cf7ea 1305c02e eff08fc3  .'...L..........
 9180 13000000 8320c103 03248103 83244103  ..... ...$...$A.
 9190 13010104 67800000 1301019a 232e1164  ....g.......#..d
 91a0 232c8164 13040166 13055051 eff0cfb9  #,.d...f..PQ....
 91b0 93073000 73906730 93071000 73906730  ..0.s.g0....s.g0
 91c0 9307c49a 13078016 93060000 13064001  ..............@.
 91d0 93052001 13054001 efe01fe4 93070000  .. ...@.........
 91e0 73906730 eff0cfb3 2326a4fe 8327c4fe  s.g0....#&...'..
 91f0 938f0700 1305802f eff0cfbb 8327c4fe  ......./.....'..
 9200 13850700 eff0cfde 13050031 eff08fba  ...........1....
 9210 9307c49a 13860700 93054001 13054001  ..........@...@.
 9220 eff01fc1 6f000000                    ....o...        
Contents of section .data:
 0000 73745719 5fe43e48 3337c10a d76ee494  stW._.>H37...n..
 0010 ba79e147 597ae4a6 8adf3763 ffc0e491  .y.GYz....7c....
 0020 263e604a 52e564b5 726b1ee6 de823f84  &>`JR.d.rk....?.
 0030 0af94944 bfa31c8e a67dfa78 0baef7cf  ..ID.....}.x....
 0040 1349101f 6e1339fd ad238619 ae3290ab  .I..n.9..#...2..
 0050 4abf4add d74bc85e 2bca6fb7 7204dfa3  J.J..K.^+.o.r...
 0060 281f4836 27a7070d 289c2a3f e7f37864  (.H6'...(.*?..xd
 0070 3f7a289c ebdcdb0b f65fe5d7 301b4566  ?z(......_..0.Ef
 0080 c90a6f96 c29845aa 4b3f4a04 58b520d0  ..o...E.K?J.X. .
 0090 faddd11c c737ddb3 690702c9 6568434e  .....7..i...ehCN
 00a0 5ffaf557 50550287 799ce622 bd564cda  _..WPU..y..".VL.
 00b0 0d08cdb8 8374c5ed aae3923f 000139b7  .....t.....?..9.
 00c0 4785ca0d b0ad411a f9be9ab7 cec11990  G.....A.........
 00d0 126c53cf d7c59b55 e545fe55 000c7e06  .lS....U.E.U..~.
 00e0 71f204ab c204e828 7cf62976 862eb761  q......(|.)v...a
 00f0 bb70becc 511f23ab bc7486b7 2af5a3a1  .p..Q.#..t..*...
 0100 488054d9 fde7d5b4 724dd33a cde39994  H.T.....rM.:....
 0110 36405b1c 65d0262b f2365ed3 a2185637  6@[.e.&+.6^...V7
 0120 4009571c a473a155 007051c8 f67ac793  @.W..s.U.pQ..z..
 0130 9e9adb17 548420c4 a5ef3ffd 0840d033  ....T. ...?..@.3
 0140 4d01f6ae e3e01f75 c27b1e51 4668f054  M......u.{.QFh.T
 0150 7bb95fa8 68d8c453 d91ef4be 14c790a4  {._.h..S........
 0160 aa006293 735ecc10 cd0750cc e9f40f69  ..b.s^....P....i
 0170 f77f71a7 bd736b32 94f4f864 3b45852d  ..q..sk2...d;E.-
 0180 25d039cf bf2967ae f4109ca6 7b3bab43  %.9..)g.....{;.C
 0190 bc6c67fd f4aad89f ba64d961 87107ab6  .lg......d.a..z.
 01a0 03637b61 c150a908 5a536c76 50b38dd5  .c{a.P..ZSlvP...
 01b0 9c39b656 75981872 7c423755 c2a3a92c  .9.Vu..r|B7U...,
 01c0 fb8b2122 7770ab8e 22de61a0 acaadc5e  ..!"wp..".a....^
 01d0 4a19dea4 60ed094b e8655f59 6dd7b897  J...`..K.e_Ym...
 01e0 51bfc162 dc5817d4 3c40ea4f 28194038  Q..b.X..<@.O(.@8
 01f0 8b82cc34 bcc71c7d 4b41f6fc 44e8a15a  ...4...}KA..D..Z
 0200 c7db0cc1 d8d1a887 6eb33e3a 0a4eecbe  ........n.>:.N..
 0210 47bdccd1 96cfbb9d 626d9f9a 3c127312  G.......bm..<.s.
 0220 3b697e6d 98625b3a c2d2146c 30959b65  ;i~m.b[:...l0..e
 0230 f5e6b355 6f1bcea6 14714c97 033a0b79  ...Uo....qL..:.y
 0240 123258a2 c7f2a65b d4d8ba96 f1084116  .2X....[......A.
 0250 726ec0f0 6ffb3b8d c49a748b 5ed2c27a  rn..o.;...t.^..z
 0260 d36ed192 50b3dfd1 0b6a386a 9cc342ec  .n..P....j8j..B.
 0270 03621852 2babbf9c 2fb0c7e8 c4e8632c  .b.R+.../.....c,
 0280 abbf87e3 9435964f 6b343da6 35c08667  .....5.Ok4=.5..g
 0290 cc66f153 4096af29 b457cd22 4317ce67  .f.S@..).W."C..g
 02a0 ab59be9b ffc416a0 f80e65b8 86c1b2d1  .Y........e.....
 02b0 e5f1820b 0b293ba1 d5c0d4ce db7608d1  .....);......v..
 02c0 110a3c45 abd0ca24 a7996720 a69a1d55  ..<E...$..g ...U
 02d0 20202000 20202020 20000000 5b0a0d00     .     ...[...
 02e0 20205b00 2e2e2e20 00000000 5d0a0d00    [.... ....]...
 02f0 20202e2e 2e0a0d00 0a0d6e6f 206f6620    ........no of 
 0300 6379636c 65732074 616b656e 20000000  cycles taken ...
 0310 0a0d0000                             ....            
Contents of section .riscv.attributes:
 0000 41360000 00726973 63760001 2c000000  A6...riscv..,...
 0010 04100572 76333269 3270315f 6d327030  ...rv32i2p1_m2p0
 0020 5f7a6963 73723270 305f7a6d 6d756c31  _zicsr2p0_zmmul1
 0030 70300008 010a0b                      p0.....         
Contents of section .comment:
 0000 4743433a 20286732 65653565 34333030  GCC: (g2ee5e4300
 0010 31382920 31322e32 2e3000             18) 12.2.0.     

Disassembly of section .text:

00008000 <reset_handler>:
    8000:	00008137          	lui	sp,0x8
    8004:	00010113          	mv	sp,sp
    8008:	00000513          	li	a0,0
    800c:	00000593          	li	a1,0
    8010:	08600613          	li	a2,134
    8014:	184010ef          	jal	9198 <main>

00008018 <MATMUL>:
    8018:	f8010113          	add	sp,sp,-128 # 7f80 <_ebss+0x7c6c>
    801c:	06812e23          	sw	s0,124(sp)
    8020:	07212c23          	sw	s2,120(sp)
    8024:	07312a23          	sw	s3,116(sp)
    8028:	07412823          	sw	s4,112(sp)
    802c:	07512623          	sw	s5,108(sp)
    8030:	08010413          	add	s0,sp,128
    8034:	f8a42e23          	sw	a0,-100(s0)
    8038:	f8b42c23          	sw	a1,-104(s0)
    803c:	f8c42a23          	sw	a2,-108(s0)
    8040:	f8d42823          	sw	a3,-112(s0)
    8044:	f8e42623          	sw	a4,-116(s0)
    8048:	f8f42423          	sw	a5,-120(s0)
    804c:	f9842703          	lw	a4,-104(s0)
    8050:	00070793          	mv	a5,a4
    8054:	fff78793          	add	a5,a5,-1
    8058:	fcf42223          	sw	a5,-60(s0)
    805c:	00070a13          	mv	s4,a4
    8060:	00000a93          	li	s5,0
    8064:	01da5793          	srl	a5,s4,0x1d
    8068:	003a9e93          	sll	t4,s5,0x3
    806c:	01d7eeb3          	or	t4,a5,t4
    8070:	003a1e13          	sll	t3,s4,0x3
    8074:	f9442683          	lw	a3,-108(s0)
    8078:	00068793          	mv	a5,a3
    807c:	fff78793          	add	a5,a5,-1
    8080:	fcf42023          	sw	a5,-64(s0)
    8084:	00068913          	mv	s2,a3
    8088:	00000993          	li	s3,0
    808c:	01d95793          	srl	a5,s2,0x1d
    8090:	00399393          	sll	t2,s3,0x3
    8094:	0077e3b3          	or	t2,a5,t2
    8098:	00391313          	sll	t1,s2,0x3
    809c:	f9442603          	lw	a2,-108(s0)
    80a0:	00060793          	mv	a5,a2
    80a4:	fff78793          	add	a5,a5,-1
    80a8:	faf42e23          	sw	a5,-68(s0)
    80ac:	00060f13          	mv	t5,a2
    80b0:	00000f93          	li	t6,0
    80b4:	01bf5793          	srl	a5,t5,0x1b
    80b8:	005f9893          	sll	a7,t6,0x5
    80bc:	0117e8b3          	or	a7,a5,a7
    80c0:	005f1813          	sll	a6,t5,0x5
    80c4:	f9442783          	lw	a5,-108(s0)
    80c8:	fcf42e23          	sw	a5,-36(s0)
    80cc:	f9c42783          	lw	a5,-100(s0)
    80d0:	fcf42c23          	sw	a5,-40(s0)
    80d4:	f9842783          	lw	a5,-104(s0)
    80d8:	fcf42a23          	sw	a5,-44(s0)
    80dc:	fc042823          	sw	zero,-48(s0)
    80e0:	fc042623          	sw	zero,-52(s0)
    80e4:	fc042423          	sw	zero,-56(s0)
    80e8:	2000006f          	j	82e8 <MATMUL+0x2d0>
    80ec:	fdc42783          	lw	a5,-36(s0)
    80f0:	01000593          	li	a1,16
    80f4:	00f5f463          	bgeu	a1,a5,80fc <MATMUL+0xe4>
    80f8:	01000793          	li	a5,16
    80fc:	faf42c23          	sw	a5,-72(s0)
    8100:	1b40006f          	j	82b4 <MATMUL+0x29c>
    8104:	fd842783          	lw	a5,-40(s0)
    8108:	01000593          	li	a1,16
    810c:	00f5f463          	bgeu	a1,a5,8114 <MATMUL+0xfc>
    8110:	01000793          	li	a5,16
    8114:	faf42a23          	sw	a5,-76(s0)
    8118:	1680006f          	j	8280 <MATMUL+0x268>
    811c:	fd442783          	lw	a5,-44(s0)
    8120:	01000593          	li	a1,16
    8124:	00f5f463          	bgeu	a1,a5,812c <MATMUL+0x114>
    8128:	01000793          	li	a5,16
    812c:	faf42823          	sw	a5,-80(s0)
    8130:	fc842783          	lw	a5,-56(s0)
    8134:	01078793          	add	a5,a5,16
    8138:	f9842583          	lw	a1,-104(s0)
    813c:	00b7b7b3          	sltu	a5,a5,a1
    8140:	0017c793          	xor	a5,a5,1
    8144:	faf407a3          	sb	a5,-81(s0)
    8148:	fcc42783          	lw	a5,-52(s0)
    814c:	02f707b3          	mul	a5,a4,a5
    8150:	f9042583          	lw	a1,-112(s0)
    8154:	00f585b3          	add	a1,a1,a5
    8158:	fc842783          	lw	a5,-56(s0)
    815c:	00f587b3          	add	a5,a1,a5
    8160:	faf42423          	sw	a5,-88(s0)
    8164:	fc842583          	lw	a1,-56(s0)
    8168:	fb042783          	lw	a5,-80(s0)
    816c:	00f587b3          	add	a5,a1,a5
    8170:	fff78793          	add	a5,a5,-1
    8174:	02f687b3          	mul	a5,a3,a5
    8178:	f8c42583          	lw	a1,-116(s0)
    817c:	00f585b3          	add	a1,a1,a5
    8180:	fd042783          	lw	a5,-48(s0)
    8184:	00f587b3          	add	a5,a1,a5
    8188:	faf42223          	sw	a5,-92(s0)
    818c:	fcc42783          	lw	a5,-52(s0)
    8190:	02f607b3          	mul	a5,a2,a5
    8194:	00279793          	sll	a5,a5,0x2
    8198:	f8842583          	lw	a1,-120(s0)
    819c:	00f585b3          	add	a1,a1,a5
    81a0:	fd042783          	lw	a5,-48(s0)
    81a4:	00279793          	sll	a5,a5,0x2
    81a8:	00f587b3          	add	a5,a1,a5
    81ac:	faf42023          	sw	a5,-96(s0)
    81b0:	900007b7          	lui	a5,0x90000
    81b4:	00c78793          	add	a5,a5,12 # 9000000c <_sidata+0x8fff6de4>
    81b8:	f9842583          	lw	a1,-104(s0)
    81bc:	00b7a023          	sw	a1,0(a5)
    81c0:	900007b7          	lui	a5,0x90000
    81c4:	01078793          	add	a5,a5,16 # 90000010 <_sidata+0x8fff6de8>
    81c8:	f9442583          	lw	a1,-108(s0)
    81cc:	00b7a023          	sw	a1,0(a5)
    81d0:	900007b7          	lui	a5,0x90000
    81d4:	fa842583          	lw	a1,-88(s0)
    81d8:	00b7a023          	sw	a1,0(a5) # 90000000 <_sidata+0x8fff6dd8>
    81dc:	900007b7          	lui	a5,0x90000
    81e0:	00478793          	add	a5,a5,4 # 90000004 <_sidata+0x8fff6ddc>
    81e4:	fa442583          	lw	a1,-92(s0)
    81e8:	00b7a023          	sw	a1,0(a5)
    81ec:	900007b7          	lui	a5,0x90000
    81f0:	00878793          	add	a5,a5,8 # 90000008 <_sidata+0x8fff6de0>
    81f4:	fa042583          	lw	a1,-96(s0)
    81f8:	00b7a023          	sw	a1,0(a5)
    81fc:	fc842783          	lw	a5,-56(s0)
    8200:	00079663          	bnez	a5,820c <MATMUL+0x1f4>
    8204:	00200793          	li	a5,2
    8208:	0080006f          	j	8210 <MATMUL+0x1f8>
    820c:	00000793          	li	a5,0
    8210:	faf44583          	lbu	a1,-81(s0)
    8214:	00b7e5b3          	or	a1,a5,a1
    8218:	900007b7          	lui	a5,0x90000
    821c:	01478793          	add	a5,a5,20 # 90000014 <_sidata+0x8fff6dec>
    8220:	00b7a023          	sw	a1,0(a5)
    8224:	fb042783          	lw	a5,-80(s0)
    8228:	00579593          	sll	a1,a5,0x5
    822c:	fb442783          	lw	a5,-76(s0)
    8230:	00f5e533          	or	a0,a1,a5
    8234:	fb842783          	lw	a5,-72(s0)
    8238:	00a79593          	sll	a1,a5,0xa
    823c:	900007b7          	lui	a5,0x90000
    8240:	01878793          	add	a5,a5,24 # 90000018 <_sidata+0x8fff6df0>
    8244:	00b565b3          	or	a1,a0,a1
    8248:	00b7a023          	sw	a1,0(a5)
    824c:	00000013          	nop
    8250:	900007b7          	lui	a5,0x90000
    8254:	0007a583          	lw	a1,0(a5) # 90000000 <_sidata+0x8fff6dd8>
    8258:	00100793          	li	a5,1
    825c:	fef58ae3          	beq	a1,a5,8250 <MATMUL+0x238>
    8260:	fd442583          	lw	a1,-44(s0)
    8264:	fb042783          	lw	a5,-80(s0)
    8268:	40f587b3          	sub	a5,a1,a5
    826c:	fcf42a23          	sw	a5,-44(s0)
    8270:	f9842583          	lw	a1,-104(s0)
    8274:	fd442783          	lw	a5,-44(s0)
    8278:	40f587b3          	sub	a5,a1,a5
    827c:	fcf42423          	sw	a5,-56(s0)
    8280:	fd442783          	lw	a5,-44(s0)
    8284:	e8079ce3          	bnez	a5,811c <MATMUL+0x104>
    8288:	fc042423          	sw	zero,-56(s0)
    828c:	fd842583          	lw	a1,-40(s0)
    8290:	fb442783          	lw	a5,-76(s0)
    8294:	40f587b3          	sub	a5,a1,a5
    8298:	fcf42c23          	sw	a5,-40(s0)
    829c:	f9c42583          	lw	a1,-100(s0)
    82a0:	fd842783          	lw	a5,-40(s0)
    82a4:	40f587b3          	sub	a5,a1,a5
    82a8:	fcf42623          	sw	a5,-52(s0)
    82ac:	f9842783          	lw	a5,-104(s0)
    82b0:	fcf42a23          	sw	a5,-44(s0)
    82b4:	fd842783          	lw	a5,-40(s0)
    82b8:	e40796e3          	bnez	a5,8104 <MATMUL+0xec>
    82bc:	fc042623          	sw	zero,-52(s0)
    82c0:	fdc42583          	lw	a1,-36(s0)
    82c4:	fb842783          	lw	a5,-72(s0)
    82c8:	40f587b3          	sub	a5,a1,a5
    82cc:	fcf42e23          	sw	a5,-36(s0)
    82d0:	f9442583          	lw	a1,-108(s0)
    82d4:	fdc42783          	lw	a5,-36(s0)
    82d8:	40f587b3          	sub	a5,a1,a5
    82dc:	fcf42823          	sw	a5,-48(s0)
    82e0:	f9c42783          	lw	a5,-100(s0)
    82e4:	fcf42c23          	sw	a5,-40(s0)
    82e8:	fdc42783          	lw	a5,-36(s0)
    82ec:	e00790e3          	bnez	a5,80ec <MATMUL+0xd4>
    82f0:	00000013          	nop
    82f4:	900007b7          	lui	a5,0x90000
    82f8:	01878793          	add	a5,a5,24 # 90000018 <_sidata+0x8fff6df0>
    82fc:	0007a703          	lw	a4,0(a5)
    8300:	00100793          	li	a5,1
    8304:	fef718e3          	bne	a4,a5,82f4 <MATMUL+0x2dc>
    8308:	00000013          	nop
    830c:	00000013          	nop
    8310:	07c12403          	lw	s0,124(sp)
    8314:	07812903          	lw	s2,120(sp)
    8318:	07412983          	lw	s3,116(sp)
    831c:	07012a03          	lw	s4,112(sp)
    8320:	06c12a83          	lw	s5,108(sp)
    8324:	08010113          	add	sp,sp,128
    8328:	00008067          	ret

0000832c <core_matmul>:
    832c:	fa010113          	add	sp,sp,-96
    8330:	04812e23          	sw	s0,92(sp)
    8334:	05212c23          	sw	s2,88(sp)
    8338:	05312a23          	sw	s3,84(sp)
    833c:	05412823          	sw	s4,80(sp)
    8340:	05512623          	sw	s5,76(sp)
    8344:	06010413          	add	s0,sp,96
    8348:	faa42e23          	sw	a0,-68(s0)
    834c:	fab42c23          	sw	a1,-72(s0)
    8350:	fac42a23          	sw	a2,-76(s0)
    8354:	fad42823          	sw	a3,-80(s0)
    8358:	fae42623          	sw	a4,-84(s0)
    835c:	faf42423          	sw	a5,-88(s0)
    8360:	fb842703          	lw	a4,-72(s0)
    8364:	fff70793          	add	a5,a4,-1
    8368:	fcf42823          	sw	a5,-48(s0)
    836c:	00070793          	mv	a5,a4
    8370:	00078a13          	mv	s4,a5
    8374:	00000a93          	li	s5,0
    8378:	01da5793          	srl	a5,s4,0x1d
    837c:	003a9e93          	sll	t4,s5,0x3
    8380:	01d7eeb3          	or	t4,a5,t4
    8384:	003a1e13          	sll	t3,s4,0x3
    8388:	fb442683          	lw	a3,-76(s0)
    838c:	fff68793          	add	a5,a3,-1
    8390:	fcf42623          	sw	a5,-52(s0)
    8394:	00068793          	mv	a5,a3
    8398:	00078913          	mv	s2,a5
    839c:	00000993          	li	s3,0
    83a0:	01d95793          	srl	a5,s2,0x1d
    83a4:	00399393          	sll	t2,s3,0x3
    83a8:	0077e3b3          	or	t2,a5,t2
    83ac:	00391313          	sll	t1,s2,0x3
    83b0:	fb442783          	lw	a5,-76(s0)
    83b4:	fff78613          	add	a2,a5,-1
    83b8:	fcc42423          	sw	a2,-56(s0)
    83bc:	00078613          	mv	a2,a5
    83c0:	00060f13          	mv	t5,a2
    83c4:	00000f93          	li	t6,0
    83c8:	01bf5613          	srl	a2,t5,0x1b
    83cc:	005f9893          	sll	a7,t6,0x5
    83d0:	011668b3          	or	a7,a2,a7
    83d4:	005f1813          	sll	a6,t5,0x5
    83d8:	fc042e23          	sw	zero,-36(s0)
    83dc:	1140006f          	j	84f0 <core_matmul+0x1c4>
    83e0:	fc042c23          	sw	zero,-40(s0)
    83e4:	0f40006f          	j	84d8 <core_matmul+0x1ac>
    83e8:	00078593          	mv	a1,a5
    83ec:	fdc42603          	lw	a2,-36(s0)
    83f0:	02c58633          	mul	a2,a1,a2
    83f4:	00261613          	sll	a2,a2,0x2
    83f8:	fa842583          	lw	a1,-88(s0)
    83fc:	00c585b3          	add	a1,a1,a2
    8400:	fd842603          	lw	a2,-40(s0)
    8404:	00261613          	sll	a2,a2,0x2
    8408:	00c58633          	add	a2,a1,a2
    840c:	00062023          	sw	zero,0(a2)
    8410:	fc042a23          	sw	zero,-44(s0)
    8414:	0ac0006f          	j	84c0 <core_matmul+0x194>
    8418:	00070593          	mv	a1,a4
    841c:	fdc42603          	lw	a2,-36(s0)
    8420:	02c58633          	mul	a2,a1,a2
    8424:	fb042583          	lw	a1,-80(s0)
    8428:	00c585b3          	add	a1,a1,a2
    842c:	fd442603          	lw	a2,-44(s0)
    8430:	00c58633          	add	a2,a1,a2
    8434:	00060603          	lb	a2,0(a2)
    8438:	00060513          	mv	a0,a2
    843c:	00068593          	mv	a1,a3
    8440:	fd442603          	lw	a2,-44(s0)
    8444:	02c58633          	mul	a2,a1,a2
    8448:	fac42583          	lw	a1,-84(s0)
    844c:	00c585b3          	add	a1,a1,a2
    8450:	fd842603          	lw	a2,-40(s0)
    8454:	00c58633          	add	a2,a1,a2
    8458:	00060603          	lb	a2,0(a2)
    845c:	02c505b3          	mul	a1,a0,a2
    8460:	00078513          	mv	a0,a5
    8464:	fdc42603          	lw	a2,-36(s0)
    8468:	02c50633          	mul	a2,a0,a2
    846c:	00261613          	sll	a2,a2,0x2
    8470:	fa842503          	lw	a0,-88(s0)
    8474:	00c50533          	add	a0,a0,a2
    8478:	fd842603          	lw	a2,-40(s0)
    847c:	00261613          	sll	a2,a2,0x2
    8480:	00c50633          	add	a2,a0,a2
    8484:	00062603          	lw	a2,0(a2)
    8488:	00078813          	mv	a6,a5
    848c:	fdc42503          	lw	a0,-36(s0)
    8490:	02a80533          	mul	a0,a6,a0
    8494:	00251513          	sll	a0,a0,0x2
    8498:	fa842803          	lw	a6,-88(s0)
    849c:	00a80533          	add	a0,a6,a0
    84a0:	00c585b3          	add	a1,a1,a2
    84a4:	fd842603          	lw	a2,-40(s0)
    84a8:	00261613          	sll	a2,a2,0x2
    84ac:	00c50633          	add	a2,a0,a2
    84b0:	00b62023          	sw	a1,0(a2)
    84b4:	fd442603          	lw	a2,-44(s0)
    84b8:	00160613          	add	a2,a2,1
    84bc:	fcc42a23          	sw	a2,-44(s0)
    84c0:	fd442583          	lw	a1,-44(s0)
    84c4:	fb842603          	lw	a2,-72(s0)
    84c8:	f4c5c8e3          	blt	a1,a2,8418 <core_matmul+0xec>
    84cc:	fd842603          	lw	a2,-40(s0)
    84d0:	00160613          	add	a2,a2,1
    84d4:	fcc42c23          	sw	a2,-40(s0)
    84d8:	fd842583          	lw	a1,-40(s0)
    84dc:	fb442603          	lw	a2,-76(s0)
    84e0:	f0c5c4e3          	blt	a1,a2,83e8 <core_matmul+0xbc>
    84e4:	fdc42603          	lw	a2,-36(s0)
    84e8:	00160613          	add	a2,a2,1
    84ec:	fcc42e23          	sw	a2,-36(s0)
    84f0:	fdc42583          	lw	a1,-36(s0)
    84f4:	fbc42603          	lw	a2,-68(s0)
    84f8:	eec5c4e3          	blt	a1,a2,83e0 <core_matmul+0xb4>
    84fc:	00000013          	nop
    8500:	00000013          	nop
    8504:	05c12403          	lw	s0,92(sp)
    8508:	05812903          	lw	s2,88(sp)
    850c:	05412983          	lw	s3,84(sp)
    8510:	05012a03          	lw	s4,80(sp)
    8514:	04c12a83          	lw	s5,76(sp)
    8518:	06010113          	add	sp,sp,96
    851c:	00008067          	ret

00008520 <read_cycles>:
    8520:	fe010113          	add	sp,sp,-32
    8524:	00812e23          	sw	s0,28(sp)
    8528:	02010413          	add	s0,sp,32
    852c:	b00017f3          	csrrw	a5,mcycle,zero
    8530:	fef42623          	sw	a5,-20(s0)
    8534:	fec42783          	lw	a5,-20(s0)
    8538:	00078513          	mv	a0,a5
    853c:	01c12403          	lw	s0,28(sp)
    8540:	02010113          	add	sp,sp,32
    8544:	00008067          	ret

00008548 <Uetrv32_Uart_Init>:
    8548:	fe010113          	add	sp,sp,-32
    854c:	00812e23          	sw	s0,28(sp)
    8550:	02010413          	add	s0,sp,32
    8554:	fea42623          	sw	a0,-20(s0)
    8558:	800007b7          	lui	a5,0x80000
    855c:	fec42703          	lw	a4,-20(s0)
    8560:	00e7ac23          	sw	a4,24(a5) # 80000018 <_sidata+0x7fff6df0>
    8564:	00000013          	nop
    8568:	01c12403          	lw	s0,28(sp)
    856c:	02010113          	add	sp,sp,32
    8570:	00008067          	ret

00008574 <Uetrv32_Uart_Tx>:
    8574:	fe010113          	add	sp,sp,-32
    8578:	00812e23          	sw	s0,28(sp)
    857c:	02010413          	add	s0,sp,32
    8580:	fea42623          	sw	a0,-20(s0)
    8584:	00000013          	nop
    8588:	800007b7          	lui	a5,0x80000
    858c:	0147a783          	lw	a5,20(a5) # 80000014 <_sidata+0x7fff6dec>
    8590:	0017f793          	and	a5,a5,1
    8594:	fe078ae3          	beqz	a5,8588 <Uetrv32_Uart_Tx+0x14>
    8598:	800007b7          	lui	a5,0x80000
    859c:	fec42703          	lw	a4,-20(s0)
    85a0:	00e7a023          	sw	a4,0(a5) # 80000000 <_sidata+0x7fff6dd8>
    85a4:	00000013          	nop
    85a8:	01c12403          	lw	s0,28(sp)
    85ac:	02010113          	add	sp,sp,32
    85b0:	00008067          	ret

000085b4 <UETrv32_Uart_Print>:
    85b4:	fd010113          	add	sp,sp,-48
    85b8:	02112623          	sw	ra,44(sp)
    85bc:	02812423          	sw	s0,40(sp)
    85c0:	03010413          	add	s0,sp,48
    85c4:	fca42e23          	sw	a0,-36(s0)
    85c8:	fe0407a3          	sb	zero,-17(s0)
    85cc:	0100006f          	j	85dc <UETrv32_Uart_Print+0x28>
    85d0:	fef44783          	lbu	a5,-17(s0)
    85d4:	00078513          	mv	a0,a5
    85d8:	f9dff0ef          	jal	8574 <Uetrv32_Uart_Tx>
    85dc:	fdc42783          	lw	a5,-36(s0)
    85e0:	00178713          	add	a4,a5,1
    85e4:	fce42e23          	sw	a4,-36(s0)
    85e8:	0007c783          	lbu	a5,0(a5)
    85ec:	fef407a3          	sb	a5,-17(s0)
    85f0:	fef44783          	lbu	a5,-17(s0)
    85f4:	fc079ee3          	bnez	a5,85d0 <UETrv32_Uart_Print+0x1c>
    85f8:	00000013          	nop
    85fc:	00000013          	nop
    8600:	02c12083          	lw	ra,44(sp)
    8604:	02812403          	lw	s0,40(sp)
    8608:	03010113          	add	sp,sp,48
    860c:	00008067          	ret

00008610 <Uetrv32_Uart_Rx>:
    8610:	fe010113          	add	sp,sp,-32
    8614:	00812e23          	sw	s0,28(sp)
    8618:	02010413          	add	s0,sp,32
    861c:	00000013          	nop
    8620:	800007b7          	lui	a5,0x80000
    8624:	0147a783          	lw	a5,20(a5) # 80000014 <_sidata+0x7fff6dec>
    8628:	0027f793          	and	a5,a5,2
    862c:	fe078ae3          	beqz	a5,8620 <Uetrv32_Uart_Rx+0x10>
    8630:	800007b7          	lui	a5,0x80000
    8634:	0047a783          	lw	a5,4(a5) # 80000004 <_sidata+0x7fff6ddc>
    8638:	fef407a3          	sb	a5,-17(s0)
    863c:	800007b7          	lui	a5,0x80000
    8640:	0147a703          	lw	a4,20(a5) # 80000014 <_sidata+0x7fff6dec>
    8644:	800007b7          	lui	a5,0x80000
    8648:	ffd77713          	and	a4,a4,-3
    864c:	00e7aa23          	sw	a4,20(a5) # 80000014 <_sidata+0x7fff6dec>
    8650:	fef44783          	lbu	a5,-17(s0)
    8654:	00078513          	mv	a0,a5
    8658:	01c12403          	lw	s0,28(sp)
    865c:	02010113          	add	sp,sp,32
    8660:	00008067          	ret

00008664 <UART_Send_8bit_number>:
    8664:	fc010113          	add	sp,sp,-64
    8668:	02112e23          	sw	ra,60(sp)
    866c:	02812c23          	sw	s0,56(sp)
    8670:	04010413          	add	s0,sp,64
    8674:	00050793          	mv	a5,a0
    8678:	fcf407a3          	sb	a5,-49(s0)
    867c:	fe042623          	sw	zero,-20(s0)
    8680:	fe0405a3          	sb	zero,-21(s0)
    8684:	fcf40783          	lb	a5,-49(s0)
    8688:	0007de63          	bgez	a5,86a4 <UART_Send_8bit_number+0x40>
    868c:	00100793          	li	a5,1
    8690:	fef405a3          	sb	a5,-21(s0)
    8694:	fcf44783          	lbu	a5,-49(s0)
    8698:	40f007b3          	neg	a5,a5
    869c:	0ff7f793          	zext.b	a5,a5
    86a0:	fcf407a3          	sb	a5,-49(s0)
    86a4:	fcf40783          	lb	a5,-49(s0)
    86a8:	06079063          	bnez	a5,8708 <UART_Send_8bit_number+0xa4>
    86ac:	2d000513          	li	a0,720
    86b0:	f05ff0ef          	jal	85b4 <UETrv32_Uart_Print>
    86b4:	03000513          	li	a0,48
    86b8:	ebdff0ef          	jal	8574 <Uetrv32_Uart_Tx>
    86bc:	1240006f          	j	87e0 <UART_Send_8bit_number+0x17c>
    86c0:	fcf40703          	lb	a4,-49(s0)
    86c4:	00a00793          	li	a5,10
    86c8:	02f767b3          	rem	a5,a4,a5
    86cc:	01879793          	sll	a5,a5,0x18
    86d0:	4187d793          	sra	a5,a5,0x18
    86d4:	0ff7f713          	zext.b	a4,a5
    86d8:	fec42783          	lw	a5,-20(s0)
    86dc:	00178693          	add	a3,a5,1
    86e0:	fed42623          	sw	a3,-20(s0)
    86e4:	03070713          	add	a4,a4,48
    86e8:	0ff77713          	zext.b	a4,a4
    86ec:	ff078793          	add	a5,a5,-16
    86f0:	008787b3          	add	a5,a5,s0
    86f4:	fee78423          	sb	a4,-24(a5)
    86f8:	fcf40703          	lb	a4,-49(s0)
    86fc:	00a00793          	li	a5,10
    8700:	02f747b3          	div	a5,a4,a5
    8704:	fcf407a3          	sb	a5,-49(s0)
    8708:	fcf40783          	lb	a5,-49(s0)
    870c:	faf04ae3          	bgtz	a5,86c0 <UART_Send_8bit_number+0x5c>
    8710:	feb44783          	lbu	a5,-21(s0)
    8714:	04078663          	beqz	a5,8760 <UART_Send_8bit_number+0xfc>
    8718:	02d00513          	li	a0,45
    871c:	e59ff0ef          	jal	8574 <Uetrv32_Uart_Tx>
    8720:	fec42703          	lw	a4,-20(s0)
    8724:	00100793          	li	a5,1
    8728:	06e7ce63          	blt	a5,a4,87a4 <UART_Send_8bit_number+0x140>
    872c:	00100713          	li	a4,1
    8730:	fec42783          	lw	a5,-20(s0)
    8734:	40f707b3          	sub	a5,a4,a5
    8738:	fef42223          	sw	a5,-28(s0)
    873c:	0180006f          	j	8754 <UART_Send_8bit_number+0xf0>
    8740:	02000513          	li	a0,32
    8744:	e31ff0ef          	jal	8574 <Uetrv32_Uart_Tx>
    8748:	fe442783          	lw	a5,-28(s0)
    874c:	fff78793          	add	a5,a5,-1
    8750:	fef42223          	sw	a5,-28(s0)
    8754:	fe442783          	lw	a5,-28(s0)
    8758:	fe07d4e3          	bgez	a5,8740 <UART_Send_8bit_number+0xdc>
    875c:	0480006f          	j	87a4 <UART_Send_8bit_number+0x140>
    8760:	02000513          	li	a0,32
    8764:	e11ff0ef          	jal	8574 <Uetrv32_Uart_Tx>
    8768:	fec42703          	lw	a4,-20(s0)
    876c:	00100793          	li	a5,1
    8770:	02e7ca63          	blt	a5,a4,87a4 <UART_Send_8bit_number+0x140>
    8774:	00100713          	li	a4,1
    8778:	fec42783          	lw	a5,-20(s0)
    877c:	40f707b3          	sub	a5,a4,a5
    8780:	fef42023          	sw	a5,-32(s0)
    8784:	0180006f          	j	879c <UART_Send_8bit_number+0x138>
    8788:	02000513          	li	a0,32
    878c:	de9ff0ef          	jal	8574 <Uetrv32_Uart_Tx>
    8790:	fe042783          	lw	a5,-32(s0)
    8794:	fff78793          	add	a5,a5,-1
    8798:	fef42023          	sw	a5,-32(s0)
    879c:	fe042783          	lw	a5,-32(s0)
    87a0:	fe07d4e3          	bgez	a5,8788 <UART_Send_8bit_number+0x124>
    87a4:	fec42783          	lw	a5,-20(s0)
    87a8:	fff78793          	add	a5,a5,-1
    87ac:	fcf42e23          	sw	a5,-36(s0)
    87b0:	0280006f          	j	87d8 <UART_Send_8bit_number+0x174>
    87b4:	fdc42783          	lw	a5,-36(s0)
    87b8:	ff078793          	add	a5,a5,-16
    87bc:	008787b3          	add	a5,a5,s0
    87c0:	fe87c783          	lbu	a5,-24(a5)
    87c4:	00078513          	mv	a0,a5
    87c8:	dadff0ef          	jal	8574 <Uetrv32_Uart_Tx>
    87cc:	fdc42783          	lw	a5,-36(s0)
    87d0:	fff78793          	add	a5,a5,-1
    87d4:	fcf42e23          	sw	a5,-36(s0)
    87d8:	fdc42783          	lw	a5,-36(s0)
    87dc:	fc07dce3          	bgez	a5,87b4 <UART_Send_8bit_number+0x150>
    87e0:	03c12083          	lw	ra,60(sp)
    87e4:	03812403          	lw	s0,56(sp)
    87e8:	04010113          	add	sp,sp,64
    87ec:	00008067          	ret

000087f0 <UART_Send_32bit_number>:
    87f0:	fc010113          	add	sp,sp,-64
    87f4:	02112e23          	sw	ra,60(sp)
    87f8:	02812c23          	sw	s0,56(sp)
    87fc:	04010413          	add	s0,sp,64
    8800:	fca42623          	sw	a0,-52(s0)
    8804:	fe042623          	sw	zero,-20(s0)
    8808:	fe0405a3          	sb	zero,-21(s0)
    880c:	fcc42783          	lw	a5,-52(s0)
    8810:	0007dc63          	bgez	a5,8828 <UART_Send_32bit_number+0x38>
    8814:	00100793          	li	a5,1
    8818:	fef405a3          	sb	a5,-21(s0)
    881c:	fcc42783          	lw	a5,-52(s0)
    8820:	40f007b3          	neg	a5,a5
    8824:	fcf42623          	sw	a5,-52(s0)
    8828:	fcc42783          	lw	a5,-52(s0)
    882c:	04079c63          	bnez	a5,8884 <UART_Send_32bit_number+0x94>
    8830:	2d400513          	li	a0,724
    8834:	d81ff0ef          	jal	85b4 <UETrv32_Uart_Print>
    8838:	03000513          	li	a0,48
    883c:	d39ff0ef          	jal	8574 <Uetrv32_Uart_Tx>
    8840:	11c0006f          	j	895c <UART_Send_32bit_number+0x16c>
    8844:	fcc42703          	lw	a4,-52(s0)
    8848:	00a00793          	li	a5,10
    884c:	02f767b3          	rem	a5,a4,a5
    8850:	0ff7f713          	zext.b	a4,a5
    8854:	fec42783          	lw	a5,-20(s0)
    8858:	00178693          	add	a3,a5,1
    885c:	fed42623          	sw	a3,-20(s0)
    8860:	03070713          	add	a4,a4,48
    8864:	0ff77713          	zext.b	a4,a4
    8868:	ff078793          	add	a5,a5,-16
    886c:	008787b3          	add	a5,a5,s0
    8870:	fee78023          	sb	a4,-32(a5)
    8874:	fcc42703          	lw	a4,-52(s0)
    8878:	00a00793          	li	a5,10
    887c:	02f747b3          	div	a5,a4,a5
    8880:	fcf42623          	sw	a5,-52(s0)
    8884:	fcc42783          	lw	a5,-52(s0)
    8888:	faf04ee3          	bgtz	a5,8844 <UART_Send_32bit_number+0x54>
    888c:	feb44783          	lbu	a5,-21(s0)
    8890:	04078663          	beqz	a5,88dc <UART_Send_32bit_number+0xec>
    8894:	02d00513          	li	a0,45
    8898:	cddff0ef          	jal	8574 <Uetrv32_Uart_Tx>
    889c:	fec42703          	lw	a4,-20(s0)
    88a0:	00400793          	li	a5,4
    88a4:	06e7ce63          	blt	a5,a4,8920 <UART_Send_32bit_number+0x130>
    88a8:	00400713          	li	a4,4
    88ac:	fec42783          	lw	a5,-20(s0)
    88b0:	40f707b3          	sub	a5,a4,a5
    88b4:	fef42223          	sw	a5,-28(s0)
    88b8:	0180006f          	j	88d0 <UART_Send_32bit_number+0xe0>
    88bc:	02000513          	li	a0,32
    88c0:	cb5ff0ef          	jal	8574 <Uetrv32_Uart_Tx>
    88c4:	fe442783          	lw	a5,-28(s0)
    88c8:	fff78793          	add	a5,a5,-1
    88cc:	fef42223          	sw	a5,-28(s0)
    88d0:	fe442783          	lw	a5,-28(s0)
    88d4:	fe07d4e3          	bgez	a5,88bc <UART_Send_32bit_number+0xcc>
    88d8:	0480006f          	j	8920 <UART_Send_32bit_number+0x130>
    88dc:	02000513          	li	a0,32
    88e0:	c95ff0ef          	jal	8574 <Uetrv32_Uart_Tx>
    88e4:	fec42703          	lw	a4,-20(s0)
    88e8:	00400793          	li	a5,4
    88ec:	02e7ca63          	blt	a5,a4,8920 <UART_Send_32bit_number+0x130>
    88f0:	00400713          	li	a4,4
    88f4:	fec42783          	lw	a5,-20(s0)
    88f8:	40f707b3          	sub	a5,a4,a5
    88fc:	fef42023          	sw	a5,-32(s0)
    8900:	0180006f          	j	8918 <UART_Send_32bit_number+0x128>
    8904:	02000513          	li	a0,32
    8908:	c6dff0ef          	jal	8574 <Uetrv32_Uart_Tx>
    890c:	fe042783          	lw	a5,-32(s0)
    8910:	fff78793          	add	a5,a5,-1
    8914:	fef42023          	sw	a5,-32(s0)
    8918:	fe042783          	lw	a5,-32(s0)
    891c:	fe07d4e3          	bgez	a5,8904 <UART_Send_32bit_number+0x114>
    8920:	fec42783          	lw	a5,-20(s0)
    8924:	fff78793          	add	a5,a5,-1
    8928:	fcf42e23          	sw	a5,-36(s0)
    892c:	0280006f          	j	8954 <UART_Send_32bit_number+0x164>
    8930:	fdc42783          	lw	a5,-36(s0)
    8934:	ff078793          	add	a5,a5,-16
    8938:	008787b3          	add	a5,a5,s0
    893c:	fe07c783          	lbu	a5,-32(a5)
    8940:	00078513          	mv	a0,a5
    8944:	c31ff0ef          	jal	8574 <Uetrv32_Uart_Tx>
    8948:	fdc42783          	lw	a5,-36(s0)
    894c:	fff78793          	add	a5,a5,-1
    8950:	fcf42e23          	sw	a5,-36(s0)
    8954:	fdc42783          	lw	a5,-36(s0)
    8958:	fc07dce3          	bgez	a5,8930 <UART_Send_32bit_number+0x140>
    895c:	03c12083          	lw	ra,60(sp)
    8960:	03812403          	lw	s0,56(sp)
    8964:	04010113          	add	sp,sp,64
    8968:	00008067          	ret

0000896c <printMatrix>:
    896c:	fd010113          	add	sp,sp,-48
    8970:	02112623          	sw	ra,44(sp)
    8974:	02812423          	sw	s0,40(sp)
    8978:	02912223          	sw	s1,36(sp)
    897c:	03010413          	add	s0,sp,48
    8980:	fca42e23          	sw	a0,-36(s0)
    8984:	fcb42c23          	sw	a1,-40(s0)
    8988:	fcc42a23          	sw	a2,-44(s0)
    898c:	fd842483          	lw	s1,-40(s0)
    8990:	fff48693          	add	a3,s1,-1
    8994:	fed42223          	sw	a3,-28(s0)
    8998:	00048693          	mv	a3,s1
    899c:	00068813          	mv	a6,a3
    89a0:	00000893          	li	a7,0
    89a4:	01b85693          	srl	a3,a6,0x1b
    89a8:	00589793          	sll	a5,a7,0x5
    89ac:	00f6e7b3          	or	a5,a3,a5
    89b0:	00581713          	sll	a4,a6,0x5
    89b4:	fe042623          	sw	zero,-20(s0)
    89b8:	0b40006f          	j	8a6c <printMatrix+0x100>
    89bc:	05b00513          	li	a0,91
    89c0:	bb5ff0ef          	jal	8574 <Uetrv32_Uart_Tx>
    89c4:	fe042423          	sw	zero,-24(s0)
    89c8:	0640006f          	j	8a2c <printMatrix+0xc0>
    89cc:	00048713          	mv	a4,s1
    89d0:	fec42783          	lw	a5,-20(s0)
    89d4:	02f707b3          	mul	a5,a4,a5
    89d8:	00279793          	sll	a5,a5,0x2
    89dc:	fd442703          	lw	a4,-44(s0)
    89e0:	00f70733          	add	a4,a4,a5
    89e4:	fe842783          	lw	a5,-24(s0)
    89e8:	00279793          	sll	a5,a5,0x2
    89ec:	00f707b3          	add	a5,a4,a5
    89f0:	0007a783          	lw	a5,0(a5)
    89f4:	fef42023          	sw	a5,-32(s0)
    89f8:	fe042503          	lw	a0,-32(s0)
    89fc:	df5ff0ef          	jal	87f0 <UART_Send_32bit_number>
    8a00:	fd842783          	lw	a5,-40(s0)
    8a04:	fff78793          	add	a5,a5,-1
    8a08:	fe842703          	lw	a4,-24(s0)
    8a0c:	00f75a63          	bge	a4,a5,8a20 <printMatrix+0xb4>
    8a10:	02c00513          	li	a0,44
    8a14:	b61ff0ef          	jal	8574 <Uetrv32_Uart_Tx>
    8a18:	02000513          	li	a0,32
    8a1c:	b59ff0ef          	jal	8574 <Uetrv32_Uart_Tx>
    8a20:	fe842783          	lw	a5,-24(s0)
    8a24:	00178793          	add	a5,a5,1
    8a28:	fef42423          	sw	a5,-24(s0)
    8a2c:	fe842703          	lw	a4,-24(s0)
    8a30:	fd842783          	lw	a5,-40(s0)
    8a34:	f8f74ce3          	blt	a4,a5,89cc <printMatrix+0x60>
    8a38:	05d00513          	li	a0,93
    8a3c:	b39ff0ef          	jal	8574 <Uetrv32_Uart_Tx>
    8a40:	fdc42783          	lw	a5,-36(s0)
    8a44:	fff78793          	add	a5,a5,-1
    8a48:	fec42703          	lw	a4,-20(s0)
    8a4c:	00f75a63          	bge	a4,a5,8a60 <printMatrix+0xf4>
    8a50:	00a00513          	li	a0,10
    8a54:	b21ff0ef          	jal	8574 <Uetrv32_Uart_Tx>
    8a58:	00d00513          	li	a0,13
    8a5c:	b19ff0ef          	jal	8574 <Uetrv32_Uart_Tx>
    8a60:	fec42783          	lw	a5,-20(s0)
    8a64:	00178793          	add	a5,a5,1
    8a68:	fef42623          	sw	a5,-20(s0)
    8a6c:	fec42703          	lw	a4,-20(s0)
    8a70:	fdc42783          	lw	a5,-36(s0)
    8a74:	f4f744e3          	blt	a4,a5,89bc <printMatrix+0x50>
    8a78:	00000013          	nop
    8a7c:	00000013          	nop
    8a80:	02c12083          	lw	ra,44(sp)
    8a84:	02812403          	lw	s0,40(sp)
    8a88:	02412483          	lw	s1,36(sp)
    8a8c:	03010113          	add	sp,sp,48
    8a90:	00008067          	ret

00008a94 <Get_Data_Word>:
    8a94:	fe010113          	add	sp,sp,-32
    8a98:	00112e23          	sw	ra,28(sp)
    8a9c:	00812c23          	sw	s0,24(sp)
    8aa0:	02010413          	add	s0,sp,32
    8aa4:	fe042623          	sw	zero,-20(s0)
    8aa8:	02c0006f          	j	8ad4 <Get_Data_Word+0x40>
    8aac:	b65ff0ef          	jal	8610 <Uetrv32_Uart_Rx>
    8ab0:	00050793          	mv	a5,a0
    8ab4:	00078713          	mv	a4,a5
    8ab8:	fec42783          	lw	a5,-20(s0)
    8abc:	ff078793          	add	a5,a5,-16
    8ac0:	008787b3          	add	a5,a5,s0
    8ac4:	fee78c23          	sb	a4,-8(a5)
    8ac8:	fec42783          	lw	a5,-20(s0)
    8acc:	00178793          	add	a5,a5,1
    8ad0:	fef42623          	sw	a5,-20(s0)
    8ad4:	fec42703          	lw	a4,-20(s0)
    8ad8:	00300793          	li	a5,3
    8adc:	fce7f8e3          	bgeu	a5,a4,8aac <Get_Data_Word+0x18>
    8ae0:	fe842783          	lw	a5,-24(s0)
    8ae4:	00078513          	mv	a0,a5
    8ae8:	01c12083          	lw	ra,28(sp)
    8aec:	01812403          	lw	s0,24(sp)
    8af0:	02010113          	add	sp,sp,32
    8af4:	00008067          	ret

00008af8 <display_input_matrix>:
    8af8:	fc010113          	add	sp,sp,-64
    8afc:	02112e23          	sw	ra,60(sp)
    8b00:	02812c23          	sw	s0,56(sp)
    8b04:	02912a23          	sw	s1,52(sp)
    8b08:	04010413          	add	s0,sp,64
    8b0c:	fca42623          	sw	a0,-52(s0)
    8b10:	fcb42423          	sw	a1,-56(s0)
    8b14:	fcc42223          	sw	a2,-60(s0)
    8b18:	fc842483          	lw	s1,-56(s0)
    8b1c:	fff48693          	add	a3,s1,-1
    8b20:	fed42223          	sw	a3,-28(s0)
    8b24:	00048693          	mv	a3,s1
    8b28:	00068813          	mv	a6,a3
    8b2c:	00000893          	li	a7,0
    8b30:	01d85693          	srl	a3,a6,0x1d
    8b34:	00389793          	sll	a5,a7,0x3
    8b38:	00f6e7b3          	or	a5,a3,a5
    8b3c:	00381713          	sll	a4,a6,0x3
    8b40:	fcc42783          	lw	a5,-52(s0)
    8b44:	00b7a793          	slti	a5,a5,11
    8b48:	0017c793          	xor	a5,a5,1
    8b4c:	fef401a3          	sb	a5,-29(s0)
    8b50:	fc842783          	lw	a5,-56(s0)
    8b54:	00b7a793          	slti	a5,a5,11
    8b58:	0017c793          	xor	a5,a5,1
    8b5c:	fef40123          	sb	a5,-30(s0)
    8b60:	2dc00513          	li	a0,732
    8b64:	a51ff0ef          	jal	85b4 <UETrv32_Uart_Print>
    8b68:	fe344783          	lbu	a5,-29(s0)
    8b6c:	00078663          	beqz	a5,8b78 <display_input_matrix+0x80>
    8b70:	00500793          	li	a5,5
    8b74:	0080006f          	j	8b7c <display_input_matrix+0x84>
    8b78:	fcc42783          	lw	a5,-52(s0)
    8b7c:	fcf42e23          	sw	a5,-36(s0)
    8b80:	fe042623          	sw	zero,-20(s0)
    8b84:	12c0006f          	j	8cb0 <display_input_matrix+0x1b8>
    8b88:	2e000513          	li	a0,736
    8b8c:	a29ff0ef          	jal	85b4 <UETrv32_Uart_Print>
    8b90:	fe244783          	lbu	a5,-30(s0)
    8b94:	0a078c63          	beqz	a5,8c4c <display_input_matrix+0x154>
    8b98:	fe042423          	sw	zero,-24(s0)
    8b9c:	0400006f          	j	8bdc <display_input_matrix+0xe4>
    8ba0:	00048713          	mv	a4,s1
    8ba4:	fec42783          	lw	a5,-20(s0)
    8ba8:	02f707b3          	mul	a5,a4,a5
    8bac:	fc442703          	lw	a4,-60(s0)
    8bb0:	00f70733          	add	a4,a4,a5
    8bb4:	fe842783          	lw	a5,-24(s0)
    8bb8:	00f707b3          	add	a5,a4,a5
    8bbc:	00078783          	lb	a5,0(a5)
    8bc0:	00078513          	mv	a0,a5
    8bc4:	aa1ff0ef          	jal	8664 <UART_Send_8bit_number>
    8bc8:	02000513          	li	a0,32
    8bcc:	9a9ff0ef          	jal	8574 <Uetrv32_Uart_Tx>
    8bd0:	fe842783          	lw	a5,-24(s0)
    8bd4:	00178793          	add	a5,a5,1
    8bd8:	fef42423          	sw	a5,-24(s0)
    8bdc:	fe842703          	lw	a4,-24(s0)
    8be0:	00400793          	li	a5,4
    8be4:	fae7dee3          	bge	a5,a4,8ba0 <display_input_matrix+0xa8>
    8be8:	2e400513          	li	a0,740
    8bec:	9c9ff0ef          	jal	85b4 <UETrv32_Uart_Print>
    8bf0:	fc842783          	lw	a5,-56(s0)
    8bf4:	ffb78793          	add	a5,a5,-5
    8bf8:	fef42423          	sw	a5,-24(s0)
    8bfc:	0400006f          	j	8c3c <display_input_matrix+0x144>
    8c00:	00048713          	mv	a4,s1
    8c04:	fec42783          	lw	a5,-20(s0)
    8c08:	02f707b3          	mul	a5,a4,a5
    8c0c:	fc442703          	lw	a4,-60(s0)
    8c10:	00f70733          	add	a4,a4,a5
    8c14:	fe842783          	lw	a5,-24(s0)
    8c18:	00f707b3          	add	a5,a4,a5
    8c1c:	00078783          	lb	a5,0(a5)
    8c20:	00078513          	mv	a0,a5
    8c24:	a41ff0ef          	jal	8664 <UART_Send_8bit_number>
    8c28:	02000513          	li	a0,32
    8c2c:	949ff0ef          	jal	8574 <Uetrv32_Uart_Tx>
    8c30:	fe842783          	lw	a5,-24(s0)
    8c34:	00178793          	add	a5,a5,1
    8c38:	fef42423          	sw	a5,-24(s0)
    8c3c:	fe842703          	lw	a4,-24(s0)
    8c40:	fc842783          	lw	a5,-56(s0)
    8c44:	faf74ee3          	blt	a4,a5,8c00 <display_input_matrix+0x108>
    8c48:	0540006f          	j	8c9c <display_input_matrix+0x1a4>
    8c4c:	fe042423          	sw	zero,-24(s0)
    8c50:	0400006f          	j	8c90 <display_input_matrix+0x198>
    8c54:	00048713          	mv	a4,s1
    8c58:	fec42783          	lw	a5,-20(s0)
    8c5c:	02f707b3          	mul	a5,a4,a5
    8c60:	fc442703          	lw	a4,-60(s0)
    8c64:	00f70733          	add	a4,a4,a5
    8c68:	fe842783          	lw	a5,-24(s0)
    8c6c:	00f707b3          	add	a5,a4,a5
    8c70:	00078783          	lb	a5,0(a5)
    8c74:	00078513          	mv	a0,a5
    8c78:	9edff0ef          	jal	8664 <UART_Send_8bit_number>
    8c7c:	02000513          	li	a0,32
    8c80:	8f5ff0ef          	jal	8574 <Uetrv32_Uart_Tx>
    8c84:	fe842783          	lw	a5,-24(s0)
    8c88:	00178793          	add	a5,a5,1
    8c8c:	fef42423          	sw	a5,-24(s0)
    8c90:	fe842703          	lw	a4,-24(s0)
    8c94:	fc842783          	lw	a5,-56(s0)
    8c98:	faf74ee3          	blt	a4,a5,8c54 <display_input_matrix+0x15c>
    8c9c:	2ec00513          	li	a0,748
    8ca0:	915ff0ef          	jal	85b4 <UETrv32_Uart_Print>
    8ca4:	fec42783          	lw	a5,-20(s0)
    8ca8:	00178793          	add	a5,a5,1
    8cac:	fef42623          	sw	a5,-20(s0)
    8cb0:	fec42703          	lw	a4,-20(s0)
    8cb4:	fdc42783          	lw	a5,-36(s0)
    8cb8:	ecf748e3          	blt	a4,a5,8b88 <display_input_matrix+0x90>
    8cbc:	fe344783          	lbu	a5,-29(s0)
    8cc0:	14078863          	beqz	a5,8e10 <display_input_matrix+0x318>
    8cc4:	2f000513          	li	a0,752
    8cc8:	8edff0ef          	jal	85b4 <UETrv32_Uart_Print>
    8ccc:	fcc42783          	lw	a5,-52(s0)
    8cd0:	ffb78793          	add	a5,a5,-5
    8cd4:	fef42623          	sw	a5,-20(s0)
    8cd8:	12c0006f          	j	8e04 <display_input_matrix+0x30c>
    8cdc:	2e000513          	li	a0,736
    8ce0:	8d5ff0ef          	jal	85b4 <UETrv32_Uart_Print>
    8ce4:	fe244783          	lbu	a5,-30(s0)
    8ce8:	0a078c63          	beqz	a5,8da0 <display_input_matrix+0x2a8>
    8cec:	fe042423          	sw	zero,-24(s0)
    8cf0:	0400006f          	j	8d30 <display_input_matrix+0x238>
    8cf4:	00048713          	mv	a4,s1
    8cf8:	fec42783          	lw	a5,-20(s0)
    8cfc:	02f707b3          	mul	a5,a4,a5
    8d00:	fc442703          	lw	a4,-60(s0)
    8d04:	00f70733          	add	a4,a4,a5
    8d08:	fe842783          	lw	a5,-24(s0)
    8d0c:	00f707b3          	add	a5,a4,a5
    8d10:	00078783          	lb	a5,0(a5)
    8d14:	00078513          	mv	a0,a5
    8d18:	94dff0ef          	jal	8664 <UART_Send_8bit_number>
    8d1c:	02000513          	li	a0,32
    8d20:	855ff0ef          	jal	8574 <Uetrv32_Uart_Tx>
    8d24:	fe842783          	lw	a5,-24(s0)
    8d28:	00178793          	add	a5,a5,1
    8d2c:	fef42423          	sw	a5,-24(s0)
    8d30:	fe842703          	lw	a4,-24(s0)
    8d34:	00400793          	li	a5,4
    8d38:	fae7dee3          	bge	a5,a4,8cf4 <display_input_matrix+0x1fc>
    8d3c:	2e400513          	li	a0,740
    8d40:	875ff0ef          	jal	85b4 <UETrv32_Uart_Print>
    8d44:	fc842783          	lw	a5,-56(s0)
    8d48:	ffb78793          	add	a5,a5,-5
    8d4c:	fef42423          	sw	a5,-24(s0)
    8d50:	0400006f          	j	8d90 <display_input_matrix+0x298>
    8d54:	00048713          	mv	a4,s1
    8d58:	fec42783          	lw	a5,-20(s0)
    8d5c:	02f707b3          	mul	a5,a4,a5
    8d60:	fc442703          	lw	a4,-60(s0)
    8d64:	00f70733          	add	a4,a4,a5
    8d68:	fe842783          	lw	a5,-24(s0)
    8d6c:	00f707b3          	add	a5,a4,a5
    8d70:	00078783          	lb	a5,0(a5)
    8d74:	00078513          	mv	a0,a5
    8d78:	8edff0ef          	jal	8664 <UART_Send_8bit_number>
    8d7c:	02000513          	li	a0,32
    8d80:	ff4ff0ef          	jal	8574 <Uetrv32_Uart_Tx>
    8d84:	fe842783          	lw	a5,-24(s0)
    8d88:	00178793          	add	a5,a5,1
    8d8c:	fef42423          	sw	a5,-24(s0)
    8d90:	fe842703          	lw	a4,-24(s0)
    8d94:	fc842783          	lw	a5,-56(s0)
    8d98:	faf74ee3          	blt	a4,a5,8d54 <display_input_matrix+0x25c>
    8d9c:	0540006f          	j	8df0 <display_input_matrix+0x2f8>
    8da0:	fe042423          	sw	zero,-24(s0)
    8da4:	0400006f          	j	8de4 <display_input_matrix+0x2ec>
    8da8:	00048713          	mv	a4,s1
    8dac:	fec42783          	lw	a5,-20(s0)
    8db0:	02f707b3          	mul	a5,a4,a5
    8db4:	fc442703          	lw	a4,-60(s0)
    8db8:	00f70733          	add	a4,a4,a5
    8dbc:	fe842783          	lw	a5,-24(s0)
    8dc0:	00f707b3          	add	a5,a4,a5
    8dc4:	00078783          	lb	a5,0(a5)
    8dc8:	00078513          	mv	a0,a5
    8dcc:	899ff0ef          	jal	8664 <UART_Send_8bit_number>
    8dd0:	02000513          	li	a0,32
    8dd4:	fa0ff0ef          	jal	8574 <Uetrv32_Uart_Tx>
    8dd8:	fe842783          	lw	a5,-24(s0)
    8ddc:	00178793          	add	a5,a5,1
    8de0:	fef42423          	sw	a5,-24(s0)
    8de4:	fe842703          	lw	a4,-24(s0)
    8de8:	fc842783          	lw	a5,-56(s0)
    8dec:	faf74ee3          	blt	a4,a5,8da8 <display_input_matrix+0x2b0>
    8df0:	2ec00513          	li	a0,748
    8df4:	fc0ff0ef          	jal	85b4 <UETrv32_Uart_Print>
    8df8:	fec42783          	lw	a5,-20(s0)
    8dfc:	00178793          	add	a5,a5,1
    8e00:	fef42623          	sw	a5,-20(s0)
    8e04:	fec42703          	lw	a4,-20(s0)
    8e08:	fcc42783          	lw	a5,-52(s0)
    8e0c:	ecf748e3          	blt	a4,a5,8cdc <display_input_matrix+0x1e4>
    8e10:	2ec00513          	li	a0,748
    8e14:	fa0ff0ef          	jal	85b4 <UETrv32_Uart_Print>
    8e18:	00000013          	nop
    8e1c:	03c12083          	lw	ra,60(sp)
    8e20:	03812403          	lw	s0,56(sp)
    8e24:	03412483          	lw	s1,52(sp)
    8e28:	04010113          	add	sp,sp,64
    8e2c:	00008067          	ret

00008e30 <display_result_matrix>:
    8e30:	fc010113          	add	sp,sp,-64
    8e34:	02112e23          	sw	ra,60(sp)
    8e38:	02812c23          	sw	s0,56(sp)
    8e3c:	02912a23          	sw	s1,52(sp)
    8e40:	04010413          	add	s0,sp,64
    8e44:	fca42623          	sw	a0,-52(s0)
    8e48:	fcb42423          	sw	a1,-56(s0)
    8e4c:	fcc42223          	sw	a2,-60(s0)
    8e50:	fc842483          	lw	s1,-56(s0)
    8e54:	fff48693          	add	a3,s1,-1
    8e58:	fed42223          	sw	a3,-28(s0)
    8e5c:	00048693          	mv	a3,s1
    8e60:	00068813          	mv	a6,a3
    8e64:	00000893          	li	a7,0
    8e68:	01b85693          	srl	a3,a6,0x1b
    8e6c:	00589793          	sll	a5,a7,0x5
    8e70:	00f6e7b3          	or	a5,a3,a5
    8e74:	00581713          	sll	a4,a6,0x5
    8e78:	fcc42783          	lw	a5,-52(s0)
    8e7c:	00b7a793          	slti	a5,a5,11
    8e80:	0017c793          	xor	a5,a5,1
    8e84:	fef401a3          	sb	a5,-29(s0)
    8e88:	fc842783          	lw	a5,-56(s0)
    8e8c:	00b7a793          	slti	a5,a5,11
    8e90:	0017c793          	xor	a5,a5,1
    8e94:	fef40123          	sb	a5,-30(s0)
    8e98:	2dc00513          	li	a0,732
    8e9c:	f18ff0ef          	jal	85b4 <UETrv32_Uart_Print>
    8ea0:	fe344783          	lbu	a5,-29(s0)
    8ea4:	00078663          	beqz	a5,8eb0 <display_result_matrix+0x80>
    8ea8:	00500793          	li	a5,5
    8eac:	0080006f          	j	8eb4 <display_result_matrix+0x84>
    8eb0:	fcc42783          	lw	a5,-52(s0)
    8eb4:	fcf42e23          	sw	a5,-36(s0)
    8eb8:	fe042623          	sw	zero,-20(s0)
    8ebc:	1440006f          	j	9000 <display_result_matrix+0x1d0>
    8ec0:	2e000513          	li	a0,736
    8ec4:	ef0ff0ef          	jal	85b4 <UETrv32_Uart_Print>
    8ec8:	fe244783          	lbu	a5,-30(s0)
    8ecc:	0c078463          	beqz	a5,8f94 <display_result_matrix+0x164>
    8ed0:	fe042423          	sw	zero,-24(s0)
    8ed4:	0480006f          	j	8f1c <display_result_matrix+0xec>
    8ed8:	00048713          	mv	a4,s1
    8edc:	fec42783          	lw	a5,-20(s0)
    8ee0:	02f707b3          	mul	a5,a4,a5
    8ee4:	00279793          	sll	a5,a5,0x2
    8ee8:	fc442703          	lw	a4,-60(s0)
    8eec:	00f70733          	add	a4,a4,a5
    8ef0:	fe842783          	lw	a5,-24(s0)
    8ef4:	00279793          	sll	a5,a5,0x2
    8ef8:	00f707b3          	add	a5,a4,a5
    8efc:	0007a783          	lw	a5,0(a5)
    8f00:	00078513          	mv	a0,a5
    8f04:	8edff0ef          	jal	87f0 <UART_Send_32bit_number>
    8f08:	02000513          	li	a0,32
    8f0c:	e68ff0ef          	jal	8574 <Uetrv32_Uart_Tx>
    8f10:	fe842783          	lw	a5,-24(s0)
    8f14:	00178793          	add	a5,a5,1
    8f18:	fef42423          	sw	a5,-24(s0)
    8f1c:	fe842703          	lw	a4,-24(s0)
    8f20:	00400793          	li	a5,4
    8f24:	fae7dae3          	bge	a5,a4,8ed8 <display_result_matrix+0xa8>
    8f28:	2e400513          	li	a0,740
    8f2c:	e88ff0ef          	jal	85b4 <UETrv32_Uart_Print>
    8f30:	fc842783          	lw	a5,-56(s0)
    8f34:	ffb78793          	add	a5,a5,-5
    8f38:	fef42423          	sw	a5,-24(s0)
    8f3c:	0480006f          	j	8f84 <display_result_matrix+0x154>
    8f40:	00048713          	mv	a4,s1
    8f44:	fec42783          	lw	a5,-20(s0)
    8f48:	02f707b3          	mul	a5,a4,a5
    8f4c:	00279793          	sll	a5,a5,0x2
    8f50:	fc442703          	lw	a4,-60(s0)
    8f54:	00f70733          	add	a4,a4,a5
    8f58:	fe842783          	lw	a5,-24(s0)
    8f5c:	00279793          	sll	a5,a5,0x2
    8f60:	00f707b3          	add	a5,a4,a5
    8f64:	0007a783          	lw	a5,0(a5)
    8f68:	00078513          	mv	a0,a5
    8f6c:	885ff0ef          	jal	87f0 <UART_Send_32bit_number>
    8f70:	02000513          	li	a0,32
    8f74:	e00ff0ef          	jal	8574 <Uetrv32_Uart_Tx>
    8f78:	fe842783          	lw	a5,-24(s0)
    8f7c:	00178793          	add	a5,a5,1
    8f80:	fef42423          	sw	a5,-24(s0)
    8f84:	fe842703          	lw	a4,-24(s0)
    8f88:	fc842783          	lw	a5,-56(s0)
    8f8c:	faf74ae3          	blt	a4,a5,8f40 <display_result_matrix+0x110>
    8f90:	05c0006f          	j	8fec <display_result_matrix+0x1bc>
    8f94:	fe042423          	sw	zero,-24(s0)
    8f98:	0480006f          	j	8fe0 <display_result_matrix+0x1b0>
    8f9c:	00048713          	mv	a4,s1
    8fa0:	fec42783          	lw	a5,-20(s0)
    8fa4:	02f707b3          	mul	a5,a4,a5
    8fa8:	00279793          	sll	a5,a5,0x2
    8fac:	fc442703          	lw	a4,-60(s0)
    8fb0:	00f70733          	add	a4,a4,a5
    8fb4:	fe842783          	lw	a5,-24(s0)
    8fb8:	00279793          	sll	a5,a5,0x2
    8fbc:	00f707b3          	add	a5,a4,a5
    8fc0:	0007a783          	lw	a5,0(a5)
    8fc4:	00078513          	mv	a0,a5
    8fc8:	829ff0ef          	jal	87f0 <UART_Send_32bit_number>
    8fcc:	02000513          	li	a0,32
    8fd0:	da4ff0ef          	jal	8574 <Uetrv32_Uart_Tx>
    8fd4:	fe842783          	lw	a5,-24(s0)
    8fd8:	00178793          	add	a5,a5,1
    8fdc:	fef42423          	sw	a5,-24(s0)
    8fe0:	fe842703          	lw	a4,-24(s0)
    8fe4:	fc842783          	lw	a5,-56(s0)
    8fe8:	faf74ae3          	blt	a4,a5,8f9c <display_result_matrix+0x16c>
    8fec:	2ec00513          	li	a0,748
    8ff0:	dc4ff0ef          	jal	85b4 <UETrv32_Uart_Print>
    8ff4:	fec42783          	lw	a5,-20(s0)
    8ff8:	00178793          	add	a5,a5,1
    8ffc:	fef42623          	sw	a5,-20(s0)
    9000:	fec42703          	lw	a4,-20(s0)
    9004:	fdc42783          	lw	a5,-36(s0)
    9008:	eaf74ce3          	blt	a4,a5,8ec0 <display_result_matrix+0x90>
    900c:	fe344783          	lbu	a5,-29(s0)
    9010:	16078463          	beqz	a5,9178 <display_result_matrix+0x348>
    9014:	2f000513          	li	a0,752
    9018:	d9cff0ef          	jal	85b4 <UETrv32_Uart_Print>
    901c:	fcc42783          	lw	a5,-52(s0)
    9020:	ffb78793          	add	a5,a5,-5
    9024:	fef42623          	sw	a5,-20(s0)
    9028:	1440006f          	j	916c <display_result_matrix+0x33c>
    902c:	2e000513          	li	a0,736
    9030:	d84ff0ef          	jal	85b4 <UETrv32_Uart_Print>
    9034:	fe244783          	lbu	a5,-30(s0)
    9038:	0c078463          	beqz	a5,9100 <display_result_matrix+0x2d0>
    903c:	fe042423          	sw	zero,-24(s0)
    9040:	0480006f          	j	9088 <display_result_matrix+0x258>
    9044:	00048713          	mv	a4,s1
    9048:	fec42783          	lw	a5,-20(s0)
    904c:	02f707b3          	mul	a5,a4,a5
    9050:	00279793          	sll	a5,a5,0x2
    9054:	fc442703          	lw	a4,-60(s0)
    9058:	00f70733          	add	a4,a4,a5
    905c:	fe842783          	lw	a5,-24(s0)
    9060:	00279793          	sll	a5,a5,0x2
    9064:	00f707b3          	add	a5,a4,a5
    9068:	0007a783          	lw	a5,0(a5)
    906c:	00078513          	mv	a0,a5
    9070:	f80ff0ef          	jal	87f0 <UART_Send_32bit_number>
    9074:	02000513          	li	a0,32
    9078:	cfcff0ef          	jal	8574 <Uetrv32_Uart_Tx>
    907c:	fe842783          	lw	a5,-24(s0)
    9080:	00178793          	add	a5,a5,1
    9084:	fef42423          	sw	a5,-24(s0)
    9088:	fe842703          	lw	a4,-24(s0)
    908c:	00400793          	li	a5,4
    9090:	fae7dae3          	bge	a5,a4,9044 <display_result_matrix+0x214>
    9094:	2e400513          	li	a0,740
    9098:	d1cff0ef          	jal	85b4 <UETrv32_Uart_Print>
    909c:	fc842783          	lw	a5,-56(s0)
    90a0:	ffb78793          	add	a5,a5,-5
    90a4:	fef42423          	sw	a5,-24(s0)
    90a8:	0480006f          	j	90f0 <display_result_matrix+0x2c0>
    90ac:	00048713          	mv	a4,s1
    90b0:	fec42783          	lw	a5,-20(s0)
    90b4:	02f707b3          	mul	a5,a4,a5
    90b8:	00279793          	sll	a5,a5,0x2
    90bc:	fc442703          	lw	a4,-60(s0)
    90c0:	00f70733          	add	a4,a4,a5
    90c4:	fe842783          	lw	a5,-24(s0)
    90c8:	00279793          	sll	a5,a5,0x2
    90cc:	00f707b3          	add	a5,a4,a5
    90d0:	0007a783          	lw	a5,0(a5)
    90d4:	00078513          	mv	a0,a5
    90d8:	f18ff0ef          	jal	87f0 <UART_Send_32bit_number>
    90dc:	02000513          	li	a0,32
    90e0:	c94ff0ef          	jal	8574 <Uetrv32_Uart_Tx>
    90e4:	fe842783          	lw	a5,-24(s0)
    90e8:	00178793          	add	a5,a5,1
    90ec:	fef42423          	sw	a5,-24(s0)
    90f0:	fe842703          	lw	a4,-24(s0)
    90f4:	fc842783          	lw	a5,-56(s0)
    90f8:	faf74ae3          	blt	a4,a5,90ac <display_result_matrix+0x27c>
    90fc:	05c0006f          	j	9158 <display_result_matrix+0x328>
    9100:	fe042423          	sw	zero,-24(s0)
    9104:	0480006f          	j	914c <display_result_matrix+0x31c>
    9108:	00048713          	mv	a4,s1
    910c:	fec42783          	lw	a5,-20(s0)
    9110:	02f707b3          	mul	a5,a4,a5
    9114:	00279793          	sll	a5,a5,0x2
    9118:	fc442703          	lw	a4,-60(s0)
    911c:	00f70733          	add	a4,a4,a5
    9120:	fe842783          	lw	a5,-24(s0)
    9124:	00279793          	sll	a5,a5,0x2
    9128:	00f707b3          	add	a5,a4,a5
    912c:	0007a783          	lw	a5,0(a5)
    9130:	00078513          	mv	a0,a5
    9134:	ebcff0ef          	jal	87f0 <UART_Send_32bit_number>
    9138:	02000513          	li	a0,32
    913c:	c38ff0ef          	jal	8574 <Uetrv32_Uart_Tx>
    9140:	fe842783          	lw	a5,-24(s0)
    9144:	00178793          	add	a5,a5,1
    9148:	fef42423          	sw	a5,-24(s0)
    914c:	fe842703          	lw	a4,-24(s0)
    9150:	fc842783          	lw	a5,-56(s0)
    9154:	faf74ae3          	blt	a4,a5,9108 <display_result_matrix+0x2d8>
    9158:	2ec00513          	li	a0,748
    915c:	c58ff0ef          	jal	85b4 <UETrv32_Uart_Print>
    9160:	fec42783          	lw	a5,-20(s0)
    9164:	00178793          	add	a5,a5,1
    9168:	fef42623          	sw	a5,-20(s0)
    916c:	fec42703          	lw	a4,-20(s0)
    9170:	fcc42783          	lw	a5,-52(s0)
    9174:	eaf74ce3          	blt	a4,a5,902c <display_result_matrix+0x1fc>
    9178:	2ec00513          	li	a0,748
    917c:	c38ff0ef          	jal	85b4 <UETrv32_Uart_Print>
    9180:	00000013          	nop
    9184:	03c12083          	lw	ra,60(sp)
    9188:	03812403          	lw	s0,56(sp)
    918c:	03412483          	lw	s1,52(sp)
    9190:	04010113          	add	sp,sp,64
    9194:	00008067          	ret

00009198 <main>:
    9198:	9a010113          	add	sp,sp,-1632
    919c:	64112e23          	sw	ra,1628(sp)
    91a0:	64812c23          	sw	s0,1624(sp)
    91a4:	66010413          	add	s0,sp,1632
    91a8:	51500513          	li	a0,1301
    91ac:	b9cff0ef          	jal	8548 <Uetrv32_Uart_Init>
    91b0:	00300793          	li	a5,3
    91b4:	30679073          	csrw	mcounteren,a5
    91b8:	00100793          	li	a5,1
    91bc:	30679073          	csrw	mcounteren,a5
    91c0:	9ac40793          	add	a5,s0,-1620
    91c4:	16800713          	li	a4,360
    91c8:	00000693          	li	a3,0
    91cc:	01400613          	li	a2,20
    91d0:	01200593          	li	a1,18
    91d4:	01400513          	li	a0,20
    91d8:	e41fe0ef          	jal	8018 <MATMUL>
    91dc:	00000793          	li	a5,0
    91e0:	30679073          	csrw	mcounteren,a5
    91e4:	b3cff0ef          	jal	8520 <read_cycles>
    91e8:	fea42623          	sw	a0,-20(s0)
    91ec:	fec42783          	lw	a5,-20(s0)
    91f0:	00078f93          	mv	t6,a5
    91f4:	2f800513          	li	a0,760
    91f8:	bbcff0ef          	jal	85b4 <UETrv32_Uart_Print>
    91fc:	fec42783          	lw	a5,-20(s0)
    9200:	00078513          	mv	a0,a5
    9204:	decff0ef          	jal	87f0 <UART_Send_32bit_number>
    9208:	31000513          	li	a0,784
    920c:	ba8ff0ef          	jal	85b4 <UETrv32_Uart_Print>
    9210:	9ac40793          	add	a5,s0,-1620
    9214:	00078613          	mv	a2,a5
    9218:	01400593          	li	a1,20
    921c:	01400513          	li	a0,20
    9220:	c11ff0ef          	jal	8e30 <display_result_matrix>
    9224:	0000006f          	j	9224 <main+0x8c>
