
build/main.o:     file format elf32-littleriscv

Contents of section .text:
 0000 130101f8 232e8106 232c2107 232a3107  ....#...#,!.#*1.
 0010 23284107 23265107 13040108 232ea4f8  #(A.#&Q.....#...
 0020 232cb4f8 232ac4f8 2328d4f8 2326e4f8  #,..#*..#(..#&..
 0030 2324f4f8 032784f9 93070700 9387f7ff  #$...'..........
 0040 2322f4fc 130a0700 930a0000 9357da01  #"...........W..
 0050 939e3a00 b3eed701 131e3a00 832644f9  ..:.......:..&D.
 0060 93870600 9387f7ff 2320f4fc 13890600  ........# ......
 0070 93090000 9357d901 93933900 b3e37700  .....W....9...w.
 0080 13133900 032644f9 93070600 9387f7ff  ..9..&D.........
 0090 232ef4fa 130f0600 930f0000 9357bf01  #............W..
 00a0 93985f00 b3e81701 13185f00 832744f9  .._......._..'D.
 00b0 232ef4fc 8327c4f9 232cf4fc 832784f9  #....'..#,...'..
 00c0 232af4fc 232804fc 232604fc 232404fc  #*..#(..#&..#$..
 00d0 6f000020 8327c4fd 93050001 63f4f500  o.. .'......c...
 00e0 93070001 232cf4fa 6f00401b 832784fd  ....#,..o.@..'..
 00f0 93050001 63f4f500 93070001 232af4fa  ....c.......#*..
 0100 6f008016 832744fd 93050001 63f4f500  o....'D.....c...
 0110 93070001 2328f4fa 832784fc 93870701  ....#(...'......
 0120 832584f9 b3b7b700 93c71700 a307f4fa  .%..............
 0130 8327c4fc b307f702 832504f9 b385f500  .'.......%......
 0140 832784fc b387f500 2324f4fa 832584fc  .'......#$...%..
 0150 832704fb b387f500 9387f7ff b387f602  .'..............
 0160 8325c4f8 b385f500 832704fd b387f500  .%.......'......
 0170 2322f4fa 8327c4fc b307f602 93972700  #"...'........'.
 0180 832584f8 b385f500 832704fd 93972700  .%.......'....'.
 0190 b387f500 2320f4fa b7070090 9387c700  ....# ..........
 01a0 832584f9 23a0b700 b7070090 93870701  .%..#...........
 01b0 832544f9 23a0b700 b7070090 832584fa  .%D.#........%..
 01c0 23a0b700 b7070090 93874700 832544fa  #.........G..%D.
 01d0 23a0b700 b7070090 93878700 832504fa  #............%..
 01e0 23a0b700 832784fc 63960700 93072000  #....'..c..... .
 01f0 6f008000 93070000 8345f4fa b3e5b700  o........E......
 0200 b7070090 93874701 23a0b700 832704fb  ......G.#....'..
 0210 93955700 832744fb 33e5f500 832784fb  ..W..'D.3....'..
 0220 9395a700 b7070090 93878701 b365b500  .............e..
 0230 23a0b700 13000000 b7070090 83a50700  #...............
 0240 93071000 e38af5fe 832544fd 832704fb  .........%D..'..
 0250 b387f540 232af4fc 832584f9 832744fd  ...@#*...%...'D.
 0260 b387f540 2324f4fc 832744fd e39c07e8  ...@#$...'D.....
 0270 232404fc 832584fd 832744fb b387f540  #$...%...'D....@
 0280 232cf4fc 8325c4f9 832784fd b387f540  #,...%...'.....@
 0290 2326f4fc 832784f9 232af4fc 832784fd  #&...'..#*...'..
 02a0 e39607e4 232604fc 8325c4fd 832784fb  ....#&...%...'..
 02b0 b387f540 232ef4fc 832544f9 8327c4fd  ...@#....%D..'..
 02c0 b387f540 2328f4fc 8327c4f9 232cf4fc  ...@#(...'..#,..
 02d0 8327c4fd e39007e0 13000000 b7070090  .'..............
 02e0 93878701 03a70700 93071000 e318f7fe  ................
 02f0 13000000 13000000 0324c107 03298107  .........$...)..
 0300 83294107 032a0107 832ac106 13010108  .)A..*...*......
 0310 67800000 130101fa 232e8104 232c2105  g.......#...#,!.
 0320 232a3105 23284105 23265105 13040106  #*1.#(A.#&Q.....
 0330 232ea4fa 232cb4fa 232ac4fa 2328d4fa  #...#,..#*..#(..
 0340 2326e4fa 2324f4fa 032784fb 9307f7ff  #&..#$...'......
 0350 2328f4fc 93070700 138a0700 930a0000  #(..............
 0360 9357da01 939e3a00 b3eed701 131e3a00  .W....:.......:.
 0370 832644fb 9387f6ff 2326f4fc 93870600  .&D.....#&......
 0380 13890700 93090000 9357d901 93933900  .........W....9.
 0390 b3e37700 13133900 832744fb 1386f7ff  ..w...9..'D.....
 03a0 2324c4fc 13860700 130f0600 930f0000  #$..............
 03b0 1356bf01 93985f00 b3681601 13185f00  .V...._..h...._.
 03c0 232e04fc 6f004011 232c04fc 6f00400f  #...o.@.#,..o.@.
 03d0 93850700 0326c4fd 3386c502 13162600  .....&..3.....&.
 03e0 832584fa b385c500 032684fd 13162600  .%.......&....&.
 03f0 3386c500 23200600 232a04fc 6f00c00a  3...# ..#*..o...
 0400 93050700 0326c4fd 3386c502 832504fb  .....&..3....%..
 0410 b385c500 032644fd 3386c500 03060600  .....&D.3.......
 0420 13050600 93850600 032644fd 3386c502  .........&D.3...
 0430 8325c4fa b385c500 032684fd 3386c500  .%.......&..3...
 0440 03060600 b305c502 13850700 0326c4fd  .............&..
 0450 3306c502 13162600 032584fa 3305c500  3.....&..%..3...
 0460 032684fd 13162600 3306c500 03260600  .&....&.3....&..
 0470 13880700 0325c4fd 3305a802 13152500  .....%..3.....%.
 0480 032884fa 3305a800 b385c500 032684fd  .(..3........&..
 0490 13162600 3306c500 2320b600 032644fd  ..&.3...# ...&D.
 04a0 13061600 232ac4fc 832544fd 032684fb  ....#*...%D..&..
 04b0 e3c8c5f4 032684fd 13061600 232cc4fc  .....&......#,..
 04c0 832584fd 032644fb e3c4c5f0 0326c4fd  .%...&D......&..
 04d0 13061600 232ec4fc 8325c4fd 0326c4fb  ....#....%...&..
 04e0 e3c4c5ee 13000000 13000000 0324c105  .............$..
 04f0 03298105 83294105 032a0105 832ac104  .)...)A..*...*..
 0500 13010106 67800000 130101fe 232e8100  ....g.......#...
 0510 13040102 f31700b0 2326f4fe 8327c4fe  ........#&...'..
 0520 13850700 0324c101 13010102 67800000  .....$......g...
 0530 130101fe 232e8100 13040102 2326a4fe  ....#.......#&..
 0540 b7070080 0327c4fe 23ace700 13000000  .....'..#.......
 0550 0324c101 13010102 67800000 130101fe  .$......g.......
 0560 232e8100 13040102 2326a4fe 13000000  #.......#&......
 0570 b7070080 83a74701 93f71700 e38a07fe  ......G.........
 0580 b7070080 0327c4fe 23a0e700 13000000  .....'..#.......
 0590 0324c101 13010102 67800000 130101fd  .$......g.......
 05a0 23261102 23248102 13040103 232ea4fc  #&..#$......#...
 05b0 a30704fe 6f004001 8347f4fe 13850700  ....o.@..G......
 05c0 97000000 e7800000 8327c4fd 13871700  .........'......
 05d0 232ee4fc 83c70700 a307f4fe 8347f4fe  #............G..
 05e0 e39c07fc 13000000 13000000 8320c102  ............. ..
 05f0 03248102 13010103 67800000 130101fe  .$......g.......
 0600 232e8100 13040102 13000000 b7070080  #...............
 0610 83a74701 93f72700 e38a07fe b7070080  ..G...'.........
 0620 83a74700 a307f4fe b7070080 03a74701  ..G...........G.
 0630 b7070080 1377d7ff 23aae700 8347f4fe  .....w..#....G..
 0640 13850700 0324c101 13010102 67800000  .....$......g...
 0650 130101fc 232e1102 232c8102 13040104  ....#...#,......
 0660 93070500 a307f4fc 232604fe a30504fe  ........#&......
 0670 8307f4fc 63de0700 93071000 a305f4fe  ....c...........
 0680 8347f4fc b307f040 93f7f70f a307f4fc  .G.....@........
 0690 8307f4fc 63960706 b7070000 13850700  ....c...........
 06a0 97000000 e7800000 13050003 97000000  ................
 06b0 e7800000 6f008013 0307f4fc 9307a000  ....o...........
 06c0 b367f702 93978701 93d78741 13f7f70f  .g.........A....
 06d0 8327c4fe 93861700 2326d4fe 13070703  .'......#&......
 06e0 1377f70f 938707ff b3878700 2384e7fe  .w..........#...
 06f0 0307f4fc 9307a000 b347f702 a307f4fc  .........G......
 0700 8307f4fc e34af0fa 8347b4fe 638a0704  .....J...G..c...
 0710 1305d002 97000000 e7800000 0327c4fe  .............'..
 0720 93071000 63c4e708 13071000 8327c4fe  ....c........'..
 0730 b307f740 2322f4fe 6f00c001 13050002  ...@#"..o.......
 0740 97000000 e7800000 832744fe 9387f7ff  .........'D.....
 0750 2322f4fe 832744fe e3d207fe 6f000005  #"...'D.....o...
 0760 13050002 97000000 e7800000 0327c4fe  .............'..
 0770 93071000 63cce702 13071000 8327c4fe  ....c........'..
 0780 b307f740 2320f4fe 6f00c001 13050002  ...@# ..o.......
 0790 97000000 e7800000 832704fe 9387f7ff  .........'......
 07a0 2320f4fe 832704fe e3d207fe 8327c4fe  # ...'.......'..
 07b0 9387f7ff 232ef4fc 6f00c002 8327c4fd  ....#...o....'..
 07c0 938707ff b3878700 83c787fe 13850700  ................
 07d0 97000000 e7800000 8327c4fd 9387f7ff  .........'......
 07e0 232ef4fc 8327c4fd e3da07fc 8320c103  #....'....... ..
 07f0 03248103 13010104 67800000 130101fc  .$......g.......
 0800 232e1102 232c8102 13040104 2326a4fc  #...#,......#&..
 0810 232604fe a30504fe 8327c4fc 63dc0700  #&.......'..c...
 0820 93071000 a305f4fe 8327c4fc b307f040  .........'.....@
 0830 2326f4fc 8327c4fc 63920706 b7070000  #&...'..c.......
 0840 13850700 97000000 e7800000 13050003  ................
 0850 97000000 e7800000 6f000013 0327c4fc  ........o....'..
 0860 9307a000 b367f702 13f7f70f 8327c4fe  .....g.......'..
 0870 93861700 2326d4fe 13070703 1377f70f  ....#&.......w..
 0880 938707ff b3878700 2380e7fe 0327c4fc  ........#....'..
 0890 9307a000 b347f702 2326f4fc 8327c4fc  .....G..#&...'..
 08a0 e34ef0fa 8347b4fe 638a0704 1305d002  .N...G..c.......
 08b0 97000000 e7800000 0327c4fe 93074000  .........'....@.
 08c0 63c4e708 13074000 8327c4fe b307f740  c.....@..'.....@
 08d0 2322f4fe 6f00c001 13050002 97000000  #"..o...........
 08e0 e7800000 832744fe 9387f7ff 2322f4fe  .....'D.....#"..
 08f0 832744fe e3d207fe 6f000005 13050002  .'D.....o.......
 0900 97000000 e7800000 0327c4fe 93074000  .........'....@.
 0910 63cce702 13074000 8327c4fe b307f740  c.....@..'.....@
 0920 2320f4fe 6f00c001 13050002 97000000  # ..o...........
 0930 e7800000 832704fe 9387f7ff 2320f4fe  .....'......# ..
 0940 832704fe e3d207fe 8327c4fe 9387f7ff  .'.......'......
 0950 232ef4fc 6f00c002 8327c4fd 938707ff  #...o....'......
 0960 b3878700 83c707fe 13850700 97000000  ................
 0970 e7800000 8327c4fd 9387f7ff 232ef4fc  .....'......#...
 0980 8327c4fd e3da07fc 8320c103 03248103  .'....... ...$..
 0990 13010104 67800000 130101fd 23261102  ....g.......#&..
 09a0 23248102 23229102 13040103 232ea4fc  #$..#"......#...
 09b0 232cb4fc 232ac4fc 832484fd 9386f4ff  #,..#*...$......
 09c0 2322d4fe 93860400 13880600 93080000  #"..............
 09d0 9356b801 93975800 b3e7f600 13175800  .V....X.......X.
 09e0 232604fe 6f00000d 1305b005 97000000  #&..o...........
 09f0 e7800000 232404fe 6f000007 13870400  ....#$..o.......
 0a00 8327c4fe b307f702 93972700 032744fd  .'........'..'D.
 0a10 3307f700 832784fe 93972700 b307f700  3....'....'.....
 0a20 83a70700 2320f4fe 032504fe 97000000  ....# ...%......
 0a30 e7800000 832784fd 9387f7ff 032784fe  .....'.......'..
 0a40 635ef700 1305c002 97000000 e7800000  c^..............
 0a50 13050002 97000000 e7800000 832784fe  .............'..
 0a60 93871700 2324f4fe 032784fe 832784fd  ....#$...'...'..
 0a70 e346f7f8 1305d005 97000000 e7800000  .F..............
 0a80 8327c4fd 9387f7ff 0327c4fe 635ef700  .'.......'..c^..
 0a90 1305a000 97000000 e7800000 1305d000  ................
 0aa0 97000000 e7800000 8327c4fe 93871700  .........'......
 0ab0 2326f4fe 0327c4fe 8327c4fd e346f7f2  #&...'...'...F..
 0ac0 13000000 13000000 8320c102 03248102  ......... ...$..
 0ad0 83244102 13010103 67800000 130101fe  .$A.....g.......
 0ae0 232e1100 232c8100 13040102 232604fe  #...#,......#&..
 0af0 6f000003 97000000 e7800000 93070500  o...............
 0b00 13870700 8327c4fe 938707ff b3878700  .....'..........
 0b10 238ce7fe 8327c4fe 93871700 2326f4fe  #....'......#&..
 0b20 0327c4fe 93073000 e3f6e7fc 832784fe  .'....0......'..
 0b30 13850700 8320c101 03248101 13010102  ..... ...$......
 0b40 67800000 130101fc 232e1102 232c8102  g.......#...#,..
 0b50 232a9102 13040104 2326a4fc 2324b4fc  #*......#&..#$..
 0b60 2322c4fc 832484fc 9386f4ff 2322d4fe  #"...$......#"..
 0b70 93860400 13880600 93080000 9356d801  .............V..
 0b80 93973800 b3e7f600 13173800 8327c4fc  ..8.......8..'..
 0b90 93a7b700 93c71700 a301f4fe 832784fc  .............'..
 0ba0 93a7b700 93c71700 2301f4fe b7070000  ........#.......
 0bb0 13850700 97000000 e7800000 834734fe  .............G4.
 0bc0 63860700 93075000 6f008000 8327c4fc  c.....P.o....'..
 0bd0 232ef4fc 232604fe 6f00c015 b7070000  #...#&..o.......
 0be0 13850700 97000000 e7800000 834724fe  .............G$.
 0bf0 6388070c 232404fe 6f008004 13870400  c...#$..o.......
 0c00 8327c4fe b307f702 032744fc 3307f700  .'.......'D.3...
 0c10 832784fe b307f700 83870700 13850700  .'..............
 0c20 97000000 e7800000 13050002 97000000  ................
 0c30 e7800000 832784fe 93871700 2324f4fe  .....'......#$..
 0c40 032784fe 93074000 e3dae7fa b7070000  .'....@.........
 0c50 13850700 97000000 e7800000 832784fc  .............'..
 0c60 9387b7ff 2324f4fe 6f008004 13870400  ....#$..o.......
 0c70 8327c4fe b307f702 032744fc 3307f700  .'.......'D.3...
 0c80 832784fe b307f700 83870700 13850700  .'..............
 0c90 97000000 e7800000 13050002 97000000  ................
 0ca0 e7800000 832784fe 93871700 2324f4fe  .....'......#$..
 0cb0 032784fe 832784fc e34af7fa 6f00c005  .'...'...J..o...
 0cc0 232404fe 6f008004 13870400 8327c4fe  #$..o........'..
 0cd0 b307f702 032744fc 3307f700 832784fe  .....'D.3....'..
 0ce0 b307f700 83870700 13850700 97000000  ................
 0cf0 e7800000 13050002 97000000 e7800000  ................
 0d00 832784fe 93871700 2324f4fe 032784fe  .'......#$...'..
 0d10 832784fc e34af7fa b7070000 13850700  .'...J..........
 0d20 97000000 e7800000 8327c4fe 93871700  .........'......
 0d30 2326f4fe 0327c4fe 8327c4fd e340f7ea  #&...'...'...@..
 0d40 834734fe 63840718 b7070000 13850700  .G4.c...........
 0d50 97000000 e7800000 8327c4fc 9387b7ff  .........'......
 0d60 2326f4fe 6f00c015 b7070000 13850700  #&..o...........
 0d70 97000000 e7800000 834724fe 6388070c  .........G$.c...
 0d80 232404fe 6f008004 13870400 8327c4fe  #$..o........'..
 0d90 b307f702 032744fc 3307f700 832784fe  .....'D.3....'..
 0da0 b307f700 83870700 13850700 97000000  ................
 0db0 e7800000 13050002 97000000 e7800000  ................
 0dc0 832784fe 93871700 2324f4fe 032784fe  .'......#$...'..
 0dd0 93074000 e3dae7fa b7070000 13850700  ..@.............
 0de0 97000000 e7800000 832784fc 9387b7ff  .........'......
 0df0 2324f4fe 6f008004 13870400 8327c4fe  #$..o........'..
 0e00 b307f702 032744fc 3307f700 832784fe  .....'D.3....'..
 0e10 b307f700 83870700 13850700 97000000  ................
 0e20 e7800000 13050002 97000000 e7800000  ................
 0e30 832784fe 93871700 2324f4fe 032784fe  .'......#$...'..
 0e40 832784fc e34af7fa 6f00c005 232404fe  .'...J..o...#$..
 0e50 6f008004 13870400 8327c4fe b307f702  o........'......
 0e60 032744fc 3307f700 832784fe b307f700  .'D.3....'......
 0e70 83870700 13850700 97000000 e7800000  ................
 0e80 13050002 97000000 e7800000 832784fe  .............'..
 0e90 93871700 2324f4fe 032784fe 832784fc  ....#$...'...'..
 0ea0 e34af7fa b7070000 13850700 97000000  .J..............
 0eb0 e7800000 8327c4fe 93871700 2326f4fe  .....'......#&..
 0ec0 0327c4fe 8327c4fc e340f7ea b7070000  .'...'...@......
 0ed0 13850700 97000000 e7800000 13000000  ................
 0ee0 8320c103 03248103 83244103 13010104  . ...$...$A.....
 0ef0 67800000 130101fc 232e1102 232c8102  g.......#...#,..
 0f00 232a9102 13040104 2326a4fc 2324b4fc  #*......#&..#$..
 0f10 2322c4fc 832484fc 9386f4ff 2322d4fe  #"...$......#"..
 0f20 93860400 13880600 93080000 9356b801  .............V..
 0f30 93975800 b3e7f600 13175800 8327c4fc  ..X.......X..'..
 0f40 93a7b700 93c71700 a301f4fe 832784fc  .............'..
 0f50 93a7b700 93c71700 2301f4fe b7070000  ........#.......
 0f60 13850700 97000000 e7800000 834734fe  .............G4.
 0f70 63860700 93075000 6f008000 8327c4fc  c.....P.o....'..
 0f80 232ef4fc 232604fe 6f004017 b7070000  #...#&..o.@.....
 0f90 13850700 97000000 e7800000 834724fe  .............G$.
 0fa0 6380070e 232404fe 6f000005 13870400  c...#$..o.......
 0fb0 8327c4fe b307f702 93972700 032744fc  .'........'..'D.
 0fc0 3307f700 832784fe 93972700 b307f700  3....'....'.....
 0fd0 83a70700 13850700 97000000 e7800000  ................
 0fe0 13050002 97000000 e7800000 832784fe  .............'..
 0ff0 93871700 2324f4fe 032784fe 93074000  ....#$...'....@.
 1000 e3d6e7fa b7070000 13850700 97000000  ................
 1010 e7800000 832784fc 9387b7ff 2324f4fe  .....'......#$..
 1020 6f000005 13870400 8327c4fe b307f702  o........'......
 1030 93972700 032744fc 3307f700 832784fe  ..'..'D.3....'..
 1040 93972700 b307f700 83a70700 13850700  ..'.............
 1050 97000000 e7800000 13050002 97000000  ................
 1060 e7800000 832784fe 93871700 2324f4fe  .....'......#$..
 1070 032784fe 832784fc e346f7fa 6f004006  .'...'...F..o.@.
 1080 232404fe 6f000005 13870400 8327c4fe  #$..o........'..
 1090 b307f702 93972700 032744fc 3307f700  ......'..'D.3...
 10a0 832784fe 93972700 b307f700 83a70700  .'....'.........
 10b0 13850700 97000000 e7800000 13050002  ................
 10c0 97000000 e7800000 832784fe 93871700  .........'......
 10d0 2324f4fe 032784fe 832784fc e346f7fa  #$...'...'...F..
 10e0 b7070000 13850700 97000000 e7800000  ................
 10f0 8327c4fe 93871700 2326f4fe 0327c4fe  .'......#&...'..
 1100 8327c4fd e344f7e8 834734fe 6380071a  .'...D...G4.c...
 1110 b7070000 13850700 97000000 e7800000  ................
 1120 8327c4fc 9387b7ff 2326f4fe 6f004017  .'......#&..o.@.
 1130 b7070000 13850700 97000000 e7800000  ................
 1140 834724fe 6380070e 232404fe 6f000005  .G$.c...#$..o...
 1150 13870400 8327c4fe b307f702 93972700  .....'........'.
 1160 032744fc 3307f700 832784fe 93972700  .'D.3....'....'.
 1170 b307f700 83a70700 13850700 97000000  ................
 1180 e7800000 13050002 97000000 e7800000  ................
 1190 832784fe 93871700 2324f4fe 032784fe  .'......#$...'..
 11a0 93074000 e3d6e7fa b7070000 13850700  ..@.............
 11b0 97000000 e7800000 832784fc 9387b7ff  .........'......
 11c0 2324f4fe 6f000005 13870400 8327c4fe  #$..o........'..
 11d0 b307f702 93972700 032744fc 3307f700  ......'..'D.3...
 11e0 832784fe 93972700 b307f700 83a70700  .'....'.........
 11f0 13850700 97000000 e7800000 13050002  ................
 1200 97000000 e7800000 832784fe 93871700  .........'......
 1210 2324f4fe 032784fe 832784fc e346f7fa  #$...'...'...F..
 1220 6f004006 232404fe 6f000005 13870400  o.@.#$..o.......
 1230 8327c4fe b307f702 93972700 032744fc  .'........'..'D.
 1240 3307f700 832784fe 93972700 b307f700  3....'....'.....
 1250 83a70700 13850700 97000000 e7800000  ................
 1260 13050002 97000000 e7800000 832784fe  .............'..
 1270 93871700 2324f4fe 032784fe 832784fc  ....#$...'...'..
 1280 e346f7fa b7070000 13850700 97000000  .F..............
 1290 e7800000 8327c4fe 93871700 2326f4fe  .....'......#&..
 12a0 0327c4fe 8327c4fc e344f7e8 b7070000  .'...'...D......
 12b0 13850700 97000000 e7800000 13000000  ................
 12c0 8320c103 03248103 83244103 13010104  . ...$...$A.....
 12d0 67800000 130101ea 232e1114 232c8114  g.......#...#,..
 12e0 232a9114 23282115 23263115 23244115  #*..#(!.#&1.#$A.
 12f0 23225115 23206115 232e7113 232c8113  #"Q.# a.#.q.#,..
 1300 232a9113 2328a113 2326b113 13040116  #*..#(..#&......
 1310 97000000 e7800000 a30704fa 13055051  ..............PQ
 1320 97000000 e7800000 93070100 2322f4ea  ............#"..
 1330 b7070000 13850700 97000000 e7800000  ................
 1340 b7070000 13850700 97000000 e7800000  ................
 1350 b7070000 13850700 97000000 e7800000  ................
 1360 97000000 e7800000 2324a4fa 832784fa  ........#$...'..
 1370 13850700 97000000 e7800000 b7070000  ................
 1380 13850700 97000000 e7800000 97000000  ................
 1390 e7800000 2322a4fa 832744fa 13850700  ....#"...'D.....
 13a0 97000000 e7800000 b7070000 13850700  ................
 13b0 97000000 e7800000 97000000 e7800000  ................
 13c0 2320a4fa 832704fa 13850700 97000000  # ...'..........
 13d0 e7800000 032644fa 2320c4ea 832684fa  .....&D.# ...&..
 13e0 93070600 9387f7ff 232ef4f8 2324c4f0  ........#...#$..
 13f0 232604f0 032584f0 8325c4f0 93070500  #&...%...%......
 1400 93d7d701 13870500 13173700 232ae4f4  ..........7.#*..
 1410 032744f5 b3e7e700 232af4f4 93070500  .'D.....#*......
 1420 93973700 2328f4f4 93870600 9387f7ff  ..7.#(..........
 1430 232cf4f8 2320c4f0 232204f0 232cd4ee  #,..# ..#"..#,..
 1440 232e04ee 032304f0 832344f0 93870300  #....#...#D.....
 1450 032884ef 8328c4ef 13070800 3387e702  .(...(......3...
 1460 93870800 93050300 b387b702 3307f700  ............3...
 1470 93070300 93050800 b387b702 93050300  ................
 1480 13050800 b3b5a502 2326b4f6 2324f4f6  ........#&..#$..
 1490 8327c4f6 b307f700 2326f4f6 032584f6  .'......#&...%..
 14a0 8325c4f6 93070500 93d7d701 13870500  .%..............
 14b0 13173700 2326e4f4 0327c4f4 b3e7e700  ..7.#&...'......
 14c0 2326f4f4 93070500 93973700 2324f4f4  #&........7.#$..
 14d0 2328c4ee 232a04ee 2324d4ee 232604ee  #(..#*..#$..#&..
 14e0 032304ef 832344ef 93870300 032884ee  .#...#D......(..
 14f0 8328c4ee 13070800 3387e702 93870800  .(......3.......
 1500 93050300 b387b702 3307f700 93070300  ........3.......
 1510 93050800 b387b702 93050300 13050800  ................
 1520 b3b5a502 2322b4f6 2320f4f6 832744f6  ....#"..# ...'D.
 1530 b307f700 2322f4f6 032504f6 832544f6  ....#"...%...%D.
 1540 93070500 93d7d701 13870500 13173700  ..............7.
 1550 2322e4f4 032744f4 b3e7e700 2322f4f4  #"...'D.....#"..
 1560 93070500 93973700 2320f4f4 b307d602  ......7.# ......
 1570 9387f700 93d74700 93974700 3301f140  ......G...G.3..@
 1580 93070100 93870700 232af4f8 832404fa  ........#*...$..
 1590 832644fa 93870400 9387f7ff 2328f4f8  .&D.........#(..
 15a0 232094ee 232204ee 832504ee 032644ee  # ..#"...%...&D.
 15b0 93870500 93d7d701 13070600 13173700  ..............7.
 15c0 232ee4f2 0327c4f3 b3e7e700 232ef4f2  #....'......#...
 15d0 93870500 93973700 232cf4f2 93870600  ......7.#,......
 15e0 9387f7ff 2326f4f8 232c94ec 232e04ec  ....#&..#,..#...
 15f0 2328d4ec 232a04ec 032884ed 8328c4ed  #(..#*...(...(..
 1600 93870800 032504ed 832544ed 13070500  .....%...%D.....
 1610 3387e702 93870500 13060800 b387c702  3...............
 1620 3307f700 93070800 13060500 b387c702  3...............
 1630 13060800 93050500 3336b602 232ec4f4  ........36..#...
 1640 232cf4f4 8327c4f5 b307f700 232ef4f4  #,...'......#...
 1650 832584f5 0326c4f5 93870500 93d7d701  .%...&..........
 1660 13070600 13173700 232ae4f2 032744f3  ......7.#*...'D.
 1670 b3e7e700 232af4f2 93870500 93973700  ....#*........7.
 1680 2328f4f2 232494ec 232604ec 2320d4ec  #(..#$..#&..# ..
 1690 232204ec 032884ec 8328c4ec 93870800  #"...(...(......
 16a0 032504ec 832544ec 13070500 3387e702  .%...%D.....3...
 16b0 93870500 13060800 b387c702 3307f700  ............3...
 16c0 93070800 13060500 b387c702 13060800  ................
 16d0 93050500 b33bb602 138b0700 b3077701  .....;........w.
 16e0 938b0700 9357db01 13973b00 2326e4f2  .....W....;.#&..
 16f0 0327c4f2 b3e7e700 2326f4f2 93173b00  .'......#&....;.
 1700 2324f4f2 b387d402 9387f700 93d74700  #$............G.
 1710 93974700 3301f140 93070100 93870700  ..G.3..@........
 1720 2324f4f8 832604fa 032684fa 93870600  #$...&...&......
 1730 9387f7ff 2322f4f8 232cd4ea 232e04ea  ....#"..#,..#...
 1740 032584eb 8325c4eb 93070500 93d7b701  .%...%..........
 1750 13870500 13175700 2322e4f2 032744f2  ......W.#"...'D.
 1760 b3e7e700 2322f4f2 93070500 93975700  ....#"........W.
 1770 2320f4f2 93070600 9387f7ff 2320f4f8  # ..........# ..
 1780 2328d4ea 232a04ea 2324c4ea 232604ea  #(..#*..#$..#&..
 1790 032304eb 832344eb 93870300 032884ea  .#...#D......(..
 17a0 8328c4ea 13070800 3387e702 93870800  .(......3.......
 17b0 93050300 b387b702 3307f700 93070300  ........3.......
 17c0 93050800 b387b702 93050300 13050800  ................
 17d0 b3baa502 138a0700 b3075701 938a0700  ..........W.....
 17e0 9357ba01 13975a00 232ee4f0 0327c4f1  .W....Z.#....'..
 17f0 b3e7e700 232ef4f0 93175a00 232cf4f0  ....#.....Z.#,..
 1800 138d0600 930d0000 130c0600 930c0000  ................
 1810 33878d03 b387ac03 3307f700 b3078d03  3.......3.......
 1820 b3398d03 13890700 b3073701 93890700  .9........7.....
 1830 9357b901 13975900 232ae4f0 032744f1  .W....Y.#*...'D.
 1840 b3e7e700 232af4f0 93175900 2328f4f0  ....#*....Y.#(..
 1850 b387c602 93972700 9387f700 93d74700  ......'.......G.
 1860 93974700 3301f140 93070100 93873700  ..G.3..@......7.
 1870 93d72700 93972700 232ef4f6 232e04fa  ..'...'.#...#...
 1880 6f004006 232c04fa 6f004004 97000000  o.@.#,..o.@.....
 1890 e7800000 93070500 93968701 93d68641  ...............A
 18a0 032744f9 8327c4fb 032604ea b307f602  .'D..'...&......
 18b0 3307f700 832784fb b307f700 2380d700  3....'......#...
 18c0 832784fb 93871700 232cf4fa 032784fb  .'......#,...'..
 18d0 832744fa e36cf7fa 8327c4fb 93871700  .'D..l...'......
 18e0 232ef4fa 0327c4fb 832784fa e36cf7f8  #....'...'...l..
 18f0 b7070000 13850700 97000000 e7800000  ................
 1900 232a04fa 6f000006 232804fa 6f000004  #*..o...#(..o...
 1910 97000000 e7800000 93070500 93968701  ................
 1920 93d68641 032784f8 832744fb b387f402  ...A.'...'D.....
 1930 3307f700 832704fb b307f700 2380d700  3....'......#...
 1940 832704fb 93871700 2328f4fa 032704fb  .'......#(...'..
 1950 832704fa e36ef7fa 832744fb 93871700  .'...n...'D.....
 1960 232af4fa 032744fb 832744fa e36ef7f8  #*...'D..'D..n..
 1970 b7070000 13850700 97000000 e7800000  ................
 1980 b7070000 13850700 97000000 e7800000  ................
 1990 b7070000 13850700 97000000 e7800000  ................
 19a0 032784fa 832744fa 032644f9 93850700  .'...'D..&D.....
 19b0 13050700 97000000 e7800000 b7070000  ................
 19c0 13850700 97000000 e7800000 032744fa  .............'D.
 19d0 832704fa 032684f8 93850700 13050700  .'...&..........
 19e0 97000000 e7800000 93071000 739007b0  ............s...
 19f0 93071000 73906730 8327c4f7 032784f8  ....s.g0.'...'..
 1a00 832644f9 032604fa 832544fa 032584fa  .&D..&...%D..%..
 1a10 97000000 e7800000 93070000 73906730  ............s.g0
 1a20 97000000 e7800000 232ca4f6 b7070000  ........#,......
 1a30 13850700 97000000 e7800000 832784f7  .............'..
 1a40 13850700 97000000 e7800000 b7070000  ................
 1a50 13850700 97000000 e7800000 b7070000  ................
 1a60 13850700 97000000 e7800000 032784fa  .............'..
 1a70 832704fa 0326c4f7 93850700 13050700  .'...&..........
 1a80 97000000 e7800000 b7070000 13850700  ................
 1a90 97000000 e7800000 93071000 739007b0  ............s...
 1aa0 93071000 73906730 032584fa 832544fa  ....s.g0.%...%D.
 1ab0 032604fa 8327c4f7 032784f8 832644f9  .&...'...'...&D.
 1ac0 97000000 e7800000 93070000 73906730  ............s.g0
 1ad0 97000000 e7800000 232aa4f6 b7070000  ........#*......
 1ae0 13850700 97000000 e7800000 832744f7  .............'D.
 1af0 13850700 97000000 e7800000 b7070000  ................
 1b00 13850700 97000000 e7800000 032144ea  .............!D.
 1b10 6ff09f81                             o...            
Contents of section .rodata:
 0000 20202000 20202020 20000000 5b0a0d00     .     ...[...
 0010 20205b00 2e2e2e20 00000000 5d0a0d00    [.... ....]...
 0020 20202e2e 2e0a0d00 0a0d0000 2d2d2d2d    ..........----
 0030 2d2d2d2d 2d2d2d2d 2d2d2d2d 2d2d2d2d  ----------------
 0040 2d2d2d2d 2d2d2d2d 2d2d2d2d 2d2d2d2d  ----------------
 0050 2d2d2d2d 2d2d2d2d 2d2d2d2d 2d2d2d2d  ----------------
 0060 2d2d2d2d 2d2d2d2d 2d2d2d2d 0a0d0000  ------------....
 0070 456e7465 72206469 6d5f4d3a 00000000  Enter dim_M:....
 0080 0a0d456e 74657220 64696d5f 4b3a0000  ..Enter dim_K:..
 0090 0a0d456e 74657220 64696d5f 4e3a0000  ..Enter dim_N:..
 00a0 0a0d4d61 74726978 20412069 73205265  ..Matrix A is Re
 00b0 63656976 65642120 00000000 0a0d4d61  ceived! ......Ma
 00c0 74726978 20422069 73205265 63656976  trix B is Receiv
 00d0 65642120 00000000 0a0d4d61 74726978  ed! ......Matrix
 00e0 20413a20 00000000 0a0d4d61 74726978   A: ......Matrix
 00f0 20423a20 00000000 0a0d4e6f 206f6620   B: ......No of 
 0100 6379636c 65732074 616b656e 206f6e20  cycles taken on 
 0110 47454d4d 3a200000 0a0d4d61 74726978  GEMM: ....Matrix
 0120 20433a20 00000000 0a0d2e2e 2e2e2e2e   C: ............
 0130 2e2e4e6f 77207065 72666f72 6d696e67  ..Now performing
 0140 206d6174 72697820 6d756c74 69706c69   matrix multipli
 0150 63617469 6f6e7320 6f6e2052 4953432d  cations on RISC-
 0160 562e2e2e 2e2e2e2e 20000000 0a0d4e6f  V....... .....No
 0170 206f6620 6379636c 65732074 616b656e   of cycles taken
 0180 206f6e20 52495343 2d562043 6f72653a   on RISC-V Core:
 0190 2000                                  .              
Contents of section .comment:
 0000 00474343 3a202867 32656535 65343330  .GCC: (g2ee5e430
 0010 30313829 2031322e 322e3000           018) 12.2.0.    
Contents of section .riscv.attributes:
 0000 41360000 00726973 63760001 2c000000  A6...riscv..,...
 0010 04100572 76333269 3270315f 6d327030  ...rv32i2p1_m2p0
 0020 5f7a6963 73723270 305f7a6d 6d756c31  _zicsr2p0_zmmul1
 0030 70300008 010a0b                      p0.....         

Disassembly of section .text:

00000000 <MATMUL>:
       0:	f8010113          	add	sp,sp,-128
       4:	06812e23          	sw	s0,124(sp)
       8:	07212c23          	sw	s2,120(sp)
       c:	07312a23          	sw	s3,116(sp)
      10:	07412823          	sw	s4,112(sp)
      14:	07512623          	sw	s5,108(sp)
      18:	08010413          	add	s0,sp,128
      1c:	f8a42e23          	sw	a0,-100(s0)
      20:	f8b42c23          	sw	a1,-104(s0)
      24:	f8c42a23          	sw	a2,-108(s0)
      28:	f8d42823          	sw	a3,-112(s0)
      2c:	f8e42623          	sw	a4,-116(s0)
      30:	f8f42423          	sw	a5,-120(s0)
      34:	f9842703          	lw	a4,-104(s0)
      38:	00070793          	mv	a5,a4
      3c:	fff78793          	add	a5,a5,-1
      40:	fcf42223          	sw	a5,-60(s0)
      44:	00070a13          	mv	s4,a4
      48:	00000a93          	li	s5,0
      4c:	01da5793          	srl	a5,s4,0x1d
      50:	003a9e93          	sll	t4,s5,0x3
      54:	01d7eeb3          	or	t4,a5,t4
      58:	003a1e13          	sll	t3,s4,0x3
      5c:	f9442683          	lw	a3,-108(s0)
      60:	00068793          	mv	a5,a3
      64:	fff78793          	add	a5,a5,-1
      68:	fcf42023          	sw	a5,-64(s0)
      6c:	00068913          	mv	s2,a3
      70:	00000993          	li	s3,0
      74:	01d95793          	srl	a5,s2,0x1d
      78:	00399393          	sll	t2,s3,0x3
      7c:	0077e3b3          	or	t2,a5,t2
      80:	00391313          	sll	t1,s2,0x3
      84:	f9442603          	lw	a2,-108(s0)
      88:	00060793          	mv	a5,a2
      8c:	fff78793          	add	a5,a5,-1
      90:	faf42e23          	sw	a5,-68(s0)
      94:	00060f13          	mv	t5,a2
      98:	00000f93          	li	t6,0
      9c:	01bf5793          	srl	a5,t5,0x1b
      a0:	005f9893          	sll	a7,t6,0x5
      a4:	0117e8b3          	or	a7,a5,a7
      a8:	005f1813          	sll	a6,t5,0x5
      ac:	f9442783          	lw	a5,-108(s0)
      b0:	fcf42e23          	sw	a5,-36(s0)
      b4:	f9c42783          	lw	a5,-100(s0)
      b8:	fcf42c23          	sw	a5,-40(s0)
      bc:	f9842783          	lw	a5,-104(s0)
      c0:	fcf42a23          	sw	a5,-44(s0)
      c4:	fc042823          	sw	zero,-48(s0)
      c8:	fc042623          	sw	zero,-52(s0)
      cc:	fc042423          	sw	zero,-56(s0)
      d0:	2000006f          	j	2d0 <.L2>

000000d4 <.L13>:
      d4:	fdc42783          	lw	a5,-36(s0)
      d8:	01000593          	li	a1,16
      dc:	00f5f463          	bgeu	a1,a5,e4 <.L3>
      e0:	01000793          	li	a5,16

000000e4 <.L3>:
      e4:	faf42c23          	sw	a5,-72(s0)
      e8:	1b40006f          	j	29c <.L4>

000000ec <.L12>:
      ec:	fd842783          	lw	a5,-40(s0)
      f0:	01000593          	li	a1,16
      f4:	00f5f463          	bgeu	a1,a5,fc <.L5>
      f8:	01000793          	li	a5,16

000000fc <.L5>:
      fc:	faf42a23          	sw	a5,-76(s0)
     100:	1680006f          	j	268 <.L6>

00000104 <.L11>:
     104:	fd442783          	lw	a5,-44(s0)
     108:	01000593          	li	a1,16
     10c:	00f5f463          	bgeu	a1,a5,114 <.L7>
     110:	01000793          	li	a5,16

00000114 <.L7>:
     114:	faf42823          	sw	a5,-80(s0)
     118:	fc842783          	lw	a5,-56(s0)
     11c:	01078793          	add	a5,a5,16
     120:	f9842583          	lw	a1,-104(s0)
     124:	00b7b7b3          	sltu	a5,a5,a1
     128:	0017c793          	xor	a5,a5,1
     12c:	faf407a3          	sb	a5,-81(s0)
     130:	fcc42783          	lw	a5,-52(s0)
     134:	02f707b3          	mul	a5,a4,a5
     138:	f9042583          	lw	a1,-112(s0)
     13c:	00f585b3          	add	a1,a1,a5
     140:	fc842783          	lw	a5,-56(s0)
     144:	00f587b3          	add	a5,a1,a5
     148:	faf42423          	sw	a5,-88(s0)
     14c:	fc842583          	lw	a1,-56(s0)
     150:	fb042783          	lw	a5,-80(s0)
     154:	00f587b3          	add	a5,a1,a5
     158:	fff78793          	add	a5,a5,-1
     15c:	02f687b3          	mul	a5,a3,a5
     160:	f8c42583          	lw	a1,-116(s0)
     164:	00f585b3          	add	a1,a1,a5
     168:	fd042783          	lw	a5,-48(s0)
     16c:	00f587b3          	add	a5,a1,a5
     170:	faf42223          	sw	a5,-92(s0)
     174:	fcc42783          	lw	a5,-52(s0)
     178:	02f607b3          	mul	a5,a2,a5
     17c:	00279793          	sll	a5,a5,0x2
     180:	f8842583          	lw	a1,-120(s0)
     184:	00f585b3          	add	a1,a1,a5
     188:	fd042783          	lw	a5,-48(s0)
     18c:	00279793          	sll	a5,a5,0x2
     190:	00f587b3          	add	a5,a1,a5
     194:	faf42023          	sw	a5,-96(s0)
     198:	900007b7          	lui	a5,0x90000
     19c:	00c78793          	add	a5,a5,12 # 9000000c <.L126+0x8fffe6a8>
     1a0:	f9842583          	lw	a1,-104(s0)
     1a4:	00b7a023          	sw	a1,0(a5)
     1a8:	900007b7          	lui	a5,0x90000
     1ac:	01078793          	add	a5,a5,16 # 90000010 <.L126+0x8fffe6ac>
     1b0:	f9442583          	lw	a1,-108(s0)
     1b4:	00b7a023          	sw	a1,0(a5)
     1b8:	900007b7          	lui	a5,0x90000
     1bc:	fa842583          	lw	a1,-88(s0)
     1c0:	00b7a023          	sw	a1,0(a5) # 90000000 <.L126+0x8fffe69c>
     1c4:	900007b7          	lui	a5,0x90000
     1c8:	00478793          	add	a5,a5,4 # 90000004 <.L126+0x8fffe6a0>
     1cc:	fa442583          	lw	a1,-92(s0)
     1d0:	00b7a023          	sw	a1,0(a5)
     1d4:	900007b7          	lui	a5,0x90000
     1d8:	00878793          	add	a5,a5,8 # 90000008 <.L126+0x8fffe6a4>
     1dc:	fa042583          	lw	a1,-96(s0)
     1e0:	00b7a023          	sw	a1,0(a5)
     1e4:	fc842783          	lw	a5,-56(s0)
     1e8:	00079663          	bnez	a5,1f4 <.L8>
     1ec:	00200793          	li	a5,2
     1f0:	0080006f          	j	1f8 <.L9>

000001f4 <.L8>:
     1f4:	00000793          	li	a5,0

000001f8 <.L9>:
     1f8:	faf44583          	lbu	a1,-81(s0)
     1fc:	00b7e5b3          	or	a1,a5,a1
     200:	900007b7          	lui	a5,0x90000
     204:	01478793          	add	a5,a5,20 # 90000014 <.L126+0x8fffe6b0>
     208:	00b7a023          	sw	a1,0(a5)
     20c:	fb042783          	lw	a5,-80(s0)
     210:	00579593          	sll	a1,a5,0x5
     214:	fb442783          	lw	a5,-76(s0)
     218:	00f5e533          	or	a0,a1,a5
     21c:	fb842783          	lw	a5,-72(s0)
     220:	00a79593          	sll	a1,a5,0xa
     224:	900007b7          	lui	a5,0x90000
     228:	01878793          	add	a5,a5,24 # 90000018 <.L126+0x8fffe6b4>
     22c:	00b565b3          	or	a1,a0,a1
     230:	00b7a023          	sw	a1,0(a5)
     234:	00000013          	nop

00000238 <.L10>:
     238:	900007b7          	lui	a5,0x90000
     23c:	0007a583          	lw	a1,0(a5) # 90000000 <.L126+0x8fffe69c>
     240:	00100793          	li	a5,1
     244:	fef58ae3          	beq	a1,a5,238 <.L10>
     248:	fd442583          	lw	a1,-44(s0)
     24c:	fb042783          	lw	a5,-80(s0)
     250:	40f587b3          	sub	a5,a1,a5
     254:	fcf42a23          	sw	a5,-44(s0)
     258:	f9842583          	lw	a1,-104(s0)
     25c:	fd442783          	lw	a5,-44(s0)
     260:	40f587b3          	sub	a5,a1,a5
     264:	fcf42423          	sw	a5,-56(s0)

00000268 <.L6>:
     268:	fd442783          	lw	a5,-44(s0)
     26c:	e8079ce3          	bnez	a5,104 <.L11>
     270:	fc042423          	sw	zero,-56(s0)
     274:	fd842583          	lw	a1,-40(s0)
     278:	fb442783          	lw	a5,-76(s0)
     27c:	40f587b3          	sub	a5,a1,a5
     280:	fcf42c23          	sw	a5,-40(s0)
     284:	f9c42583          	lw	a1,-100(s0)
     288:	fd842783          	lw	a5,-40(s0)
     28c:	40f587b3          	sub	a5,a1,a5
     290:	fcf42623          	sw	a5,-52(s0)
     294:	f9842783          	lw	a5,-104(s0)
     298:	fcf42a23          	sw	a5,-44(s0)

0000029c <.L4>:
     29c:	fd842783          	lw	a5,-40(s0)
     2a0:	e40796e3          	bnez	a5,ec <.L12>
     2a4:	fc042623          	sw	zero,-52(s0)
     2a8:	fdc42583          	lw	a1,-36(s0)
     2ac:	fb842783          	lw	a5,-72(s0)
     2b0:	40f587b3          	sub	a5,a1,a5
     2b4:	fcf42e23          	sw	a5,-36(s0)
     2b8:	f9442583          	lw	a1,-108(s0)
     2bc:	fdc42783          	lw	a5,-36(s0)
     2c0:	40f587b3          	sub	a5,a1,a5
     2c4:	fcf42823          	sw	a5,-48(s0)
     2c8:	f9c42783          	lw	a5,-100(s0)
     2cc:	fcf42c23          	sw	a5,-40(s0)

000002d0 <.L2>:
     2d0:	fdc42783          	lw	a5,-36(s0)
     2d4:	e00790e3          	bnez	a5,d4 <.L13>
     2d8:	00000013          	nop

000002dc <.L14>:
     2dc:	900007b7          	lui	a5,0x90000
     2e0:	01878793          	add	a5,a5,24 # 90000018 <.L126+0x8fffe6b4>
     2e4:	0007a703          	lw	a4,0(a5)
     2e8:	00100793          	li	a5,1
     2ec:	fef718e3          	bne	a4,a5,2dc <.L14>
     2f0:	00000013          	nop
     2f4:	00000013          	nop
     2f8:	07c12403          	lw	s0,124(sp)
     2fc:	07812903          	lw	s2,120(sp)
     300:	07412983          	lw	s3,116(sp)
     304:	07012a03          	lw	s4,112(sp)
     308:	06c12a83          	lw	s5,108(sp)
     30c:	08010113          	add	sp,sp,128
     310:	00008067          	ret

00000314 <core_matmul>:
     314:	fa010113          	add	sp,sp,-96
     318:	04812e23          	sw	s0,92(sp)
     31c:	05212c23          	sw	s2,88(sp)
     320:	05312a23          	sw	s3,84(sp)
     324:	05412823          	sw	s4,80(sp)
     328:	05512623          	sw	s5,76(sp)
     32c:	06010413          	add	s0,sp,96
     330:	faa42e23          	sw	a0,-68(s0)
     334:	fab42c23          	sw	a1,-72(s0)
     338:	fac42a23          	sw	a2,-76(s0)
     33c:	fad42823          	sw	a3,-80(s0)
     340:	fae42623          	sw	a4,-84(s0)
     344:	faf42423          	sw	a5,-88(s0)
     348:	fb842703          	lw	a4,-72(s0)
     34c:	fff70793          	add	a5,a4,-1
     350:	fcf42823          	sw	a5,-48(s0)
     354:	00070793          	mv	a5,a4
     358:	00078a13          	mv	s4,a5
     35c:	00000a93          	li	s5,0
     360:	01da5793          	srl	a5,s4,0x1d
     364:	003a9e93          	sll	t4,s5,0x3
     368:	01d7eeb3          	or	t4,a5,t4
     36c:	003a1e13          	sll	t3,s4,0x3
     370:	fb442683          	lw	a3,-76(s0)
     374:	fff68793          	add	a5,a3,-1
     378:	fcf42623          	sw	a5,-52(s0)
     37c:	00068793          	mv	a5,a3
     380:	00078913          	mv	s2,a5
     384:	00000993          	li	s3,0
     388:	01d95793          	srl	a5,s2,0x1d
     38c:	00399393          	sll	t2,s3,0x3
     390:	0077e3b3          	or	t2,a5,t2
     394:	00391313          	sll	t1,s2,0x3
     398:	fb442783          	lw	a5,-76(s0)
     39c:	fff78613          	add	a2,a5,-1
     3a0:	fcc42423          	sw	a2,-56(s0)
     3a4:	00078613          	mv	a2,a5
     3a8:	00060f13          	mv	t5,a2
     3ac:	00000f93          	li	t6,0
     3b0:	01bf5613          	srl	a2,t5,0x1b
     3b4:	005f9893          	sll	a7,t6,0x5
     3b8:	011668b3          	or	a7,a2,a7
     3bc:	005f1813          	sll	a6,t5,0x5
     3c0:	fc042e23          	sw	zero,-36(s0)
     3c4:	1140006f          	j	4d8 <.L16>

000003c8 <.L21>:
     3c8:	fc042c23          	sw	zero,-40(s0)
     3cc:	0f40006f          	j	4c0 <.L17>

000003d0 <.L20>:
     3d0:	00078593          	mv	a1,a5
     3d4:	fdc42603          	lw	a2,-36(s0)
     3d8:	02c58633          	mul	a2,a1,a2
     3dc:	00261613          	sll	a2,a2,0x2
     3e0:	fa842583          	lw	a1,-88(s0)
     3e4:	00c585b3          	add	a1,a1,a2
     3e8:	fd842603          	lw	a2,-40(s0)
     3ec:	00261613          	sll	a2,a2,0x2
     3f0:	00c58633          	add	a2,a1,a2
     3f4:	00062023          	sw	zero,0(a2)
     3f8:	fc042a23          	sw	zero,-44(s0)
     3fc:	0ac0006f          	j	4a8 <.L18>

00000400 <.L19>:
     400:	00070593          	mv	a1,a4
     404:	fdc42603          	lw	a2,-36(s0)
     408:	02c58633          	mul	a2,a1,a2
     40c:	fb042583          	lw	a1,-80(s0)
     410:	00c585b3          	add	a1,a1,a2
     414:	fd442603          	lw	a2,-44(s0)
     418:	00c58633          	add	a2,a1,a2
     41c:	00060603          	lb	a2,0(a2)
     420:	00060513          	mv	a0,a2
     424:	00068593          	mv	a1,a3
     428:	fd442603          	lw	a2,-44(s0)
     42c:	02c58633          	mul	a2,a1,a2
     430:	fac42583          	lw	a1,-84(s0)
     434:	00c585b3          	add	a1,a1,a2
     438:	fd842603          	lw	a2,-40(s0)
     43c:	00c58633          	add	a2,a1,a2
     440:	00060603          	lb	a2,0(a2)
     444:	02c505b3          	mul	a1,a0,a2
     448:	00078513          	mv	a0,a5
     44c:	fdc42603          	lw	a2,-36(s0)
     450:	02c50633          	mul	a2,a0,a2
     454:	00261613          	sll	a2,a2,0x2
     458:	fa842503          	lw	a0,-88(s0)
     45c:	00c50533          	add	a0,a0,a2
     460:	fd842603          	lw	a2,-40(s0)
     464:	00261613          	sll	a2,a2,0x2
     468:	00c50633          	add	a2,a0,a2
     46c:	00062603          	lw	a2,0(a2)
     470:	00078813          	mv	a6,a5
     474:	fdc42503          	lw	a0,-36(s0)
     478:	02a80533          	mul	a0,a6,a0
     47c:	00251513          	sll	a0,a0,0x2
     480:	fa842803          	lw	a6,-88(s0)
     484:	00a80533          	add	a0,a6,a0
     488:	00c585b3          	add	a1,a1,a2
     48c:	fd842603          	lw	a2,-40(s0)
     490:	00261613          	sll	a2,a2,0x2
     494:	00c50633          	add	a2,a0,a2
     498:	00b62023          	sw	a1,0(a2)
     49c:	fd442603          	lw	a2,-44(s0)
     4a0:	00160613          	add	a2,a2,1
     4a4:	fcc42a23          	sw	a2,-44(s0)

000004a8 <.L18>:
     4a8:	fd442583          	lw	a1,-44(s0)
     4ac:	fb842603          	lw	a2,-72(s0)
     4b0:	f4c5c8e3          	blt	a1,a2,400 <.L19>
     4b4:	fd842603          	lw	a2,-40(s0)
     4b8:	00160613          	add	a2,a2,1
     4bc:	fcc42c23          	sw	a2,-40(s0)

000004c0 <.L17>:
     4c0:	fd842583          	lw	a1,-40(s0)
     4c4:	fb442603          	lw	a2,-76(s0)
     4c8:	f0c5c4e3          	blt	a1,a2,3d0 <.L20>
     4cc:	fdc42603          	lw	a2,-36(s0)
     4d0:	00160613          	add	a2,a2,1
     4d4:	fcc42e23          	sw	a2,-36(s0)

000004d8 <.L16>:
     4d8:	fdc42583          	lw	a1,-36(s0)
     4dc:	fbc42603          	lw	a2,-68(s0)
     4e0:	eec5c4e3          	blt	a1,a2,3c8 <.L21>
     4e4:	00000013          	nop
     4e8:	00000013          	nop
     4ec:	05c12403          	lw	s0,92(sp)
     4f0:	05812903          	lw	s2,88(sp)
     4f4:	05412983          	lw	s3,84(sp)
     4f8:	05012a03          	lw	s4,80(sp)
     4fc:	04c12a83          	lw	s5,76(sp)
     500:	06010113          	add	sp,sp,96
     504:	00008067          	ret

00000508 <read_cycles>:
     508:	fe010113          	add	sp,sp,-32
     50c:	00812e23          	sw	s0,28(sp)
     510:	02010413          	add	s0,sp,32
     514:	b00017f3          	csrrw	a5,mcycle,zero
     518:	fef42623          	sw	a5,-20(s0)
     51c:	fec42783          	lw	a5,-20(s0)
     520:	00078513          	mv	a0,a5
     524:	01c12403          	lw	s0,28(sp)
     528:	02010113          	add	sp,sp,32
     52c:	00008067          	ret

00000530 <Uetrv32_Uart_Init>:
     530:	fe010113          	add	sp,sp,-32
     534:	00812e23          	sw	s0,28(sp)
     538:	02010413          	add	s0,sp,32
     53c:	fea42623          	sw	a0,-20(s0)
     540:	800007b7          	lui	a5,0x80000
     544:	fec42703          	lw	a4,-20(s0)
     548:	00e7ac23          	sw	a4,24(a5) # 80000018 <.L126+0x7fffe6b4>
     54c:	00000013          	nop
     550:	01c12403          	lw	s0,28(sp)
     554:	02010113          	add	sp,sp,32
     558:	00008067          	ret

0000055c <Uetrv32_Uart_Tx>:
     55c:	fe010113          	add	sp,sp,-32
     560:	00812e23          	sw	s0,28(sp)
     564:	02010413          	add	s0,sp,32
     568:	fea42623          	sw	a0,-20(s0)
     56c:	00000013          	nop

00000570 <.L26>:
     570:	800007b7          	lui	a5,0x80000
     574:	0147a783          	lw	a5,20(a5) # 80000014 <.L126+0x7fffe6b0>
     578:	0017f793          	and	a5,a5,1
     57c:	fe078ae3          	beqz	a5,570 <.L26>
     580:	800007b7          	lui	a5,0x80000
     584:	fec42703          	lw	a4,-20(s0)
     588:	00e7a023          	sw	a4,0(a5) # 80000000 <.L126+0x7fffe69c>
     58c:	00000013          	nop
     590:	01c12403          	lw	s0,28(sp)
     594:	02010113          	add	sp,sp,32
     598:	00008067          	ret

0000059c <UETrv32_Uart_Print>:
     59c:	fd010113          	add	sp,sp,-48
     5a0:	02112623          	sw	ra,44(sp)
     5a4:	02812423          	sw	s0,40(sp)
     5a8:	03010413          	add	s0,sp,48
     5ac:	fca42e23          	sw	a0,-36(s0)
     5b0:	fe0407a3          	sb	zero,-17(s0)
     5b4:	0140006f          	j	5c8 <.L29>

000005b8 <.L30>:
     5b8:	fef44783          	lbu	a5,-17(s0)
     5bc:	00078513          	mv	a0,a5
     5c0:	00000097          	auipc	ra,0x0
     5c4:	000080e7          	jalr	ra # 5c0 <.L30+0x8>

000005c8 <.L29>:
     5c8:	fdc42783          	lw	a5,-36(s0)
     5cc:	00178713          	add	a4,a5,1
     5d0:	fce42e23          	sw	a4,-36(s0)
     5d4:	0007c783          	lbu	a5,0(a5)
     5d8:	fef407a3          	sb	a5,-17(s0)
     5dc:	fef44783          	lbu	a5,-17(s0)
     5e0:	fc079ce3          	bnez	a5,5b8 <.L30>
     5e4:	00000013          	nop
     5e8:	00000013          	nop
     5ec:	02c12083          	lw	ra,44(sp)
     5f0:	02812403          	lw	s0,40(sp)
     5f4:	03010113          	add	sp,sp,48
     5f8:	00008067          	ret

000005fc <Uetrv32_Uart_Rx>:
     5fc:	fe010113          	add	sp,sp,-32
     600:	00812e23          	sw	s0,28(sp)
     604:	02010413          	add	s0,sp,32
     608:	00000013          	nop

0000060c <.L32>:
     60c:	800007b7          	lui	a5,0x80000
     610:	0147a783          	lw	a5,20(a5) # 80000014 <.L126+0x7fffe6b0>
     614:	0027f793          	and	a5,a5,2
     618:	fe078ae3          	beqz	a5,60c <.L32>
     61c:	800007b7          	lui	a5,0x80000
     620:	0047a783          	lw	a5,4(a5) # 80000004 <.L126+0x7fffe6a0>
     624:	fef407a3          	sb	a5,-17(s0)
     628:	800007b7          	lui	a5,0x80000
     62c:	0147a703          	lw	a4,20(a5) # 80000014 <.L126+0x7fffe6b0>
     630:	800007b7          	lui	a5,0x80000
     634:	ffd77713          	and	a4,a4,-3
     638:	00e7aa23          	sw	a4,20(a5) # 80000014 <.L126+0x7fffe6b0>
     63c:	fef44783          	lbu	a5,-17(s0)
     640:	00078513          	mv	a0,a5
     644:	01c12403          	lw	s0,28(sp)
     648:	02010113          	add	sp,sp,32
     64c:	00008067          	ret

00000650 <UART_Send_8bit_number>:
     650:	fc010113          	add	sp,sp,-64
     654:	02112e23          	sw	ra,60(sp)
     658:	02812c23          	sw	s0,56(sp)
     65c:	04010413          	add	s0,sp,64
     660:	00050793          	mv	a5,a0
     664:	fcf407a3          	sb	a5,-49(s0)
     668:	fe042623          	sw	zero,-20(s0)
     66c:	fe0405a3          	sb	zero,-21(s0)
     670:	fcf40783          	lb	a5,-49(s0)
     674:	0007de63          	bgez	a5,690 <.L35>
     678:	00100793          	li	a5,1
     67c:	fef405a3          	sb	a5,-21(s0)
     680:	fcf44783          	lbu	a5,-49(s0)
     684:	40f007b3          	neg	a5,a5
     688:	0ff7f793          	zext.b	a5,a5
     68c:	fcf407a3          	sb	a5,-49(s0)

00000690 <.L35>:
     690:	fcf40783          	lb	a5,-49(s0)
     694:	06079663          	bnez	a5,700 <.L38>
     698:	000007b7          	lui	a5,0x0
     69c:	00078513          	mv	a0,a5
     6a0:	00000097          	auipc	ra,0x0
     6a4:	000080e7          	jalr	ra # 6a0 <.L35+0x10>
     6a8:	03000513          	li	a0,48
     6ac:	00000097          	auipc	ra,0x0
     6b0:	000080e7          	jalr	ra # 6ac <.L35+0x1c>
     6b4:	1380006f          	j	7ec <.L34>

000006b8 <.L39>:
     6b8:	fcf40703          	lb	a4,-49(s0)
     6bc:	00a00793          	li	a5,10
     6c0:	02f767b3          	rem	a5,a4,a5
     6c4:	01879793          	sll	a5,a5,0x18
     6c8:	4187d793          	sra	a5,a5,0x18
     6cc:	0ff7f713          	zext.b	a4,a5
     6d0:	fec42783          	lw	a5,-20(s0)
     6d4:	00178693          	add	a3,a5,1 # 1 <MATMUL+0x1>
     6d8:	fed42623          	sw	a3,-20(s0)
     6dc:	03070713          	add	a4,a4,48
     6e0:	0ff77713          	zext.b	a4,a4
     6e4:	ff078793          	add	a5,a5,-16
     6e8:	008787b3          	add	a5,a5,s0
     6ec:	fee78423          	sb	a4,-24(a5)
     6f0:	fcf40703          	lb	a4,-49(s0)
     6f4:	00a00793          	li	a5,10
     6f8:	02f747b3          	div	a5,a4,a5
     6fc:	fcf407a3          	sb	a5,-49(s0)

00000700 <.L38>:
     700:	fcf40783          	lb	a5,-49(s0)
     704:	faf04ae3          	bgtz	a5,6b8 <.L39>
     708:	feb44783          	lbu	a5,-21(s0)
     70c:	04078a63          	beqz	a5,760 <.L40>
     710:	02d00513          	li	a0,45
     714:	00000097          	auipc	ra,0x0
     718:	000080e7          	jalr	ra # 714 <.L38+0x14>
     71c:	fec42703          	lw	a4,-20(s0)
     720:	00100793          	li	a5,1
     724:	08e7c463          	blt	a5,a4,7ac <.L41>
     728:	00100713          	li	a4,1
     72c:	fec42783          	lw	a5,-20(s0)
     730:	40f707b3          	sub	a5,a4,a5
     734:	fef42223          	sw	a5,-28(s0)
     738:	01c0006f          	j	754 <.L42>

0000073c <.L43>:
     73c:	02000513          	li	a0,32
     740:	00000097          	auipc	ra,0x0
     744:	000080e7          	jalr	ra # 740 <.L43+0x4>
     748:	fe442783          	lw	a5,-28(s0)
     74c:	fff78793          	add	a5,a5,-1
     750:	fef42223          	sw	a5,-28(s0)

00000754 <.L42>:
     754:	fe442783          	lw	a5,-28(s0)
     758:	fe07d2e3          	bgez	a5,73c <.L43>
     75c:	0500006f          	j	7ac <.L41>

00000760 <.L40>:
     760:	02000513          	li	a0,32
     764:	00000097          	auipc	ra,0x0
     768:	000080e7          	jalr	ra # 764 <.L40+0x4>
     76c:	fec42703          	lw	a4,-20(s0)
     770:	00100793          	li	a5,1
     774:	02e7cc63          	blt	a5,a4,7ac <.L41>
     778:	00100713          	li	a4,1
     77c:	fec42783          	lw	a5,-20(s0)
     780:	40f707b3          	sub	a5,a4,a5
     784:	fef42023          	sw	a5,-32(s0)
     788:	01c0006f          	j	7a4 <.L44>

0000078c <.L45>:
     78c:	02000513          	li	a0,32
     790:	00000097          	auipc	ra,0x0
     794:	000080e7          	jalr	ra # 790 <.L45+0x4>
     798:	fe042783          	lw	a5,-32(s0)
     79c:	fff78793          	add	a5,a5,-1
     7a0:	fef42023          	sw	a5,-32(s0)

000007a4 <.L44>:
     7a4:	fe042783          	lw	a5,-32(s0)
     7a8:	fe07d2e3          	bgez	a5,78c <.L45>

000007ac <.L41>:
     7ac:	fec42783          	lw	a5,-20(s0)
     7b0:	fff78793          	add	a5,a5,-1
     7b4:	fcf42e23          	sw	a5,-36(s0)
     7b8:	02c0006f          	j	7e4 <.L46>

000007bc <.L47>:
     7bc:	fdc42783          	lw	a5,-36(s0)
     7c0:	ff078793          	add	a5,a5,-16
     7c4:	008787b3          	add	a5,a5,s0
     7c8:	fe87c783          	lbu	a5,-24(a5)
     7cc:	00078513          	mv	a0,a5
     7d0:	00000097          	auipc	ra,0x0
     7d4:	000080e7          	jalr	ra # 7d0 <.L47+0x14>
     7d8:	fdc42783          	lw	a5,-36(s0)
     7dc:	fff78793          	add	a5,a5,-1
     7e0:	fcf42e23          	sw	a5,-36(s0)

000007e4 <.L46>:
     7e4:	fdc42783          	lw	a5,-36(s0)
     7e8:	fc07dae3          	bgez	a5,7bc <.L47>

000007ec <.L34>:
     7ec:	03c12083          	lw	ra,60(sp)
     7f0:	03812403          	lw	s0,56(sp)
     7f4:	04010113          	add	sp,sp,64
     7f8:	00008067          	ret

000007fc <UART_Send_32bit_number>:
     7fc:	fc010113          	add	sp,sp,-64
     800:	02112e23          	sw	ra,60(sp)
     804:	02812c23          	sw	s0,56(sp)
     808:	04010413          	add	s0,sp,64
     80c:	fca42623          	sw	a0,-52(s0)
     810:	fe042623          	sw	zero,-20(s0)
     814:	fe0405a3          	sb	zero,-21(s0)
     818:	fcc42783          	lw	a5,-52(s0)
     81c:	0007dc63          	bgez	a5,834 <.L49>
     820:	00100793          	li	a5,1
     824:	fef405a3          	sb	a5,-21(s0)
     828:	fcc42783          	lw	a5,-52(s0)
     82c:	40f007b3          	neg	a5,a5
     830:	fcf42623          	sw	a5,-52(s0)

00000834 <.L49>:
     834:	fcc42783          	lw	a5,-52(s0)
     838:	06079263          	bnez	a5,89c <.L52>
     83c:	000007b7          	lui	a5,0x0
     840:	00078513          	mv	a0,a5
     844:	00000097          	auipc	ra,0x0
     848:	000080e7          	jalr	ra # 844 <.L49+0x10>
     84c:	03000513          	li	a0,48
     850:	00000097          	auipc	ra,0x0
     854:	000080e7          	jalr	ra # 850 <.L49+0x1c>
     858:	1300006f          	j	988 <.L48>

0000085c <.L53>:
     85c:	fcc42703          	lw	a4,-52(s0)
     860:	00a00793          	li	a5,10
     864:	02f767b3          	rem	a5,a4,a5
     868:	0ff7f713          	zext.b	a4,a5
     86c:	fec42783          	lw	a5,-20(s0)
     870:	00178693          	add	a3,a5,1 # 1 <MATMUL+0x1>
     874:	fed42623          	sw	a3,-20(s0)
     878:	03070713          	add	a4,a4,48
     87c:	0ff77713          	zext.b	a4,a4
     880:	ff078793          	add	a5,a5,-16
     884:	008787b3          	add	a5,a5,s0
     888:	fee78023          	sb	a4,-32(a5)
     88c:	fcc42703          	lw	a4,-52(s0)
     890:	00a00793          	li	a5,10
     894:	02f747b3          	div	a5,a4,a5
     898:	fcf42623          	sw	a5,-52(s0)

0000089c <.L52>:
     89c:	fcc42783          	lw	a5,-52(s0)
     8a0:	faf04ee3          	bgtz	a5,85c <.L53>
     8a4:	feb44783          	lbu	a5,-21(s0)
     8a8:	04078a63          	beqz	a5,8fc <.L54>
     8ac:	02d00513          	li	a0,45
     8b0:	00000097          	auipc	ra,0x0
     8b4:	000080e7          	jalr	ra # 8b0 <.L52+0x14>
     8b8:	fec42703          	lw	a4,-20(s0)
     8bc:	00400793          	li	a5,4
     8c0:	08e7c463          	blt	a5,a4,948 <.L55>
     8c4:	00400713          	li	a4,4
     8c8:	fec42783          	lw	a5,-20(s0)
     8cc:	40f707b3          	sub	a5,a4,a5
     8d0:	fef42223          	sw	a5,-28(s0)
     8d4:	01c0006f          	j	8f0 <.L56>

000008d8 <.L57>:
     8d8:	02000513          	li	a0,32
     8dc:	00000097          	auipc	ra,0x0
     8e0:	000080e7          	jalr	ra # 8dc <.L57+0x4>
     8e4:	fe442783          	lw	a5,-28(s0)
     8e8:	fff78793          	add	a5,a5,-1
     8ec:	fef42223          	sw	a5,-28(s0)

000008f0 <.L56>:
     8f0:	fe442783          	lw	a5,-28(s0)
     8f4:	fe07d2e3          	bgez	a5,8d8 <.L57>
     8f8:	0500006f          	j	948 <.L55>

000008fc <.L54>:
     8fc:	02000513          	li	a0,32
     900:	00000097          	auipc	ra,0x0
     904:	000080e7          	jalr	ra # 900 <.L54+0x4>
     908:	fec42703          	lw	a4,-20(s0)
     90c:	00400793          	li	a5,4
     910:	02e7cc63          	blt	a5,a4,948 <.L55>
     914:	00400713          	li	a4,4
     918:	fec42783          	lw	a5,-20(s0)
     91c:	40f707b3          	sub	a5,a4,a5
     920:	fef42023          	sw	a5,-32(s0)
     924:	01c0006f          	j	940 <.L58>

00000928 <.L59>:
     928:	02000513          	li	a0,32
     92c:	00000097          	auipc	ra,0x0
     930:	000080e7          	jalr	ra # 92c <.L59+0x4>
     934:	fe042783          	lw	a5,-32(s0)
     938:	fff78793          	add	a5,a5,-1
     93c:	fef42023          	sw	a5,-32(s0)

00000940 <.L58>:
     940:	fe042783          	lw	a5,-32(s0)
     944:	fe07d2e3          	bgez	a5,928 <.L59>

00000948 <.L55>:
     948:	fec42783          	lw	a5,-20(s0)
     94c:	fff78793          	add	a5,a5,-1
     950:	fcf42e23          	sw	a5,-36(s0)
     954:	02c0006f          	j	980 <.L60>

00000958 <.L61>:
     958:	fdc42783          	lw	a5,-36(s0)
     95c:	ff078793          	add	a5,a5,-16
     960:	008787b3          	add	a5,a5,s0
     964:	fe07c783          	lbu	a5,-32(a5)
     968:	00078513          	mv	a0,a5
     96c:	00000097          	auipc	ra,0x0
     970:	000080e7          	jalr	ra # 96c <.L61+0x14>
     974:	fdc42783          	lw	a5,-36(s0)
     978:	fff78793          	add	a5,a5,-1
     97c:	fcf42e23          	sw	a5,-36(s0)

00000980 <.L60>:
     980:	fdc42783          	lw	a5,-36(s0)
     984:	fc07dae3          	bgez	a5,958 <.L61>

00000988 <.L48>:
     988:	03c12083          	lw	ra,60(sp)
     98c:	03812403          	lw	s0,56(sp)
     990:	04010113          	add	sp,sp,64
     994:	00008067          	ret

00000998 <printMatrix>:
     998:	fd010113          	add	sp,sp,-48
     99c:	02112623          	sw	ra,44(sp)
     9a0:	02812423          	sw	s0,40(sp)
     9a4:	02912223          	sw	s1,36(sp)
     9a8:	03010413          	add	s0,sp,48
     9ac:	fca42e23          	sw	a0,-36(s0)
     9b0:	fcb42c23          	sw	a1,-40(s0)
     9b4:	fcc42a23          	sw	a2,-44(s0)
     9b8:	fd842483          	lw	s1,-40(s0)
     9bc:	fff48693          	add	a3,s1,-1
     9c0:	fed42223          	sw	a3,-28(s0)
     9c4:	00048693          	mv	a3,s1
     9c8:	00068813          	mv	a6,a3
     9cc:	00000893          	li	a7,0
     9d0:	01b85693          	srl	a3,a6,0x1b
     9d4:	00589793          	sll	a5,a7,0x5
     9d8:	00f6e7b3          	or	a5,a3,a5
     9dc:	00581713          	sll	a4,a6,0x5
     9e0:	fe042623          	sw	zero,-20(s0)
     9e4:	0d00006f          	j	ab4 <.L63>

000009e8 <.L68>:
     9e8:	05b00513          	li	a0,91
     9ec:	00000097          	auipc	ra,0x0
     9f0:	000080e7          	jalr	ra # 9ec <.L68+0x4>
     9f4:	fe042423          	sw	zero,-24(s0)
     9f8:	0700006f          	j	a68 <.L64>

000009fc <.L66>:
     9fc:	00048713          	mv	a4,s1
     a00:	fec42783          	lw	a5,-20(s0)
     a04:	02f707b3          	mul	a5,a4,a5
     a08:	00279793          	sll	a5,a5,0x2
     a0c:	fd442703          	lw	a4,-44(s0)
     a10:	00f70733          	add	a4,a4,a5
     a14:	fe842783          	lw	a5,-24(s0)
     a18:	00279793          	sll	a5,a5,0x2
     a1c:	00f707b3          	add	a5,a4,a5
     a20:	0007a783          	lw	a5,0(a5)
     a24:	fef42023          	sw	a5,-32(s0)
     a28:	fe042503          	lw	a0,-32(s0)
     a2c:	00000097          	auipc	ra,0x0
     a30:	000080e7          	jalr	ra # a2c <.L66+0x30>
     a34:	fd842783          	lw	a5,-40(s0)
     a38:	fff78793          	add	a5,a5,-1
     a3c:	fe842703          	lw	a4,-24(s0)
     a40:	00f75e63          	bge	a4,a5,a5c <.L65>
     a44:	02c00513          	li	a0,44
     a48:	00000097          	auipc	ra,0x0
     a4c:	000080e7          	jalr	ra # a48 <.L66+0x4c>
     a50:	02000513          	li	a0,32
     a54:	00000097          	auipc	ra,0x0
     a58:	000080e7          	jalr	ra # a54 <.L66+0x58>

00000a5c <.L65>:
     a5c:	fe842783          	lw	a5,-24(s0)
     a60:	00178793          	add	a5,a5,1
     a64:	fef42423          	sw	a5,-24(s0)

00000a68 <.L64>:
     a68:	fe842703          	lw	a4,-24(s0)
     a6c:	fd842783          	lw	a5,-40(s0)
     a70:	f8f746e3          	blt	a4,a5,9fc <.L66>
     a74:	05d00513          	li	a0,93
     a78:	00000097          	auipc	ra,0x0
     a7c:	000080e7          	jalr	ra # a78 <.L64+0x10>
     a80:	fdc42783          	lw	a5,-36(s0)
     a84:	fff78793          	add	a5,a5,-1
     a88:	fec42703          	lw	a4,-20(s0)
     a8c:	00f75e63          	bge	a4,a5,aa8 <.L67>
     a90:	00a00513          	li	a0,10
     a94:	00000097          	auipc	ra,0x0
     a98:	000080e7          	jalr	ra # a94 <.L64+0x2c>
     a9c:	00d00513          	li	a0,13
     aa0:	00000097          	auipc	ra,0x0
     aa4:	000080e7          	jalr	ra # aa0 <.L64+0x38>

00000aa8 <.L67>:
     aa8:	fec42783          	lw	a5,-20(s0)
     aac:	00178793          	add	a5,a5,1
     ab0:	fef42623          	sw	a5,-20(s0)

00000ab4 <.L63>:
     ab4:	fec42703          	lw	a4,-20(s0)
     ab8:	fdc42783          	lw	a5,-36(s0)
     abc:	f2f746e3          	blt	a4,a5,9e8 <.L68>
     ac0:	00000013          	nop
     ac4:	00000013          	nop
     ac8:	02c12083          	lw	ra,44(sp)
     acc:	02812403          	lw	s0,40(sp)
     ad0:	02412483          	lw	s1,36(sp)
     ad4:	03010113          	add	sp,sp,48
     ad8:	00008067          	ret

00000adc <Get_Data_Word>:
     adc:	fe010113          	add	sp,sp,-32
     ae0:	00112e23          	sw	ra,28(sp)
     ae4:	00812c23          	sw	s0,24(sp)
     ae8:	02010413          	add	s0,sp,32
     aec:	fe042623          	sw	zero,-20(s0)
     af0:	0300006f          	j	b20 <.L70>

00000af4 <.L71>:
     af4:	00000097          	auipc	ra,0x0
     af8:	000080e7          	jalr	ra # af4 <.L71>
     afc:	00050793          	mv	a5,a0
     b00:	00078713          	mv	a4,a5
     b04:	fec42783          	lw	a5,-20(s0)
     b08:	ff078793          	add	a5,a5,-16
     b0c:	008787b3          	add	a5,a5,s0
     b10:	fee78c23          	sb	a4,-8(a5)
     b14:	fec42783          	lw	a5,-20(s0)
     b18:	00178793          	add	a5,a5,1
     b1c:	fef42623          	sw	a5,-20(s0)

00000b20 <.L70>:
     b20:	fec42703          	lw	a4,-20(s0)
     b24:	00300793          	li	a5,3
     b28:	fce7f6e3          	bgeu	a5,a4,af4 <.L71>
     b2c:	fe842783          	lw	a5,-24(s0)
     b30:	00078513          	mv	a0,a5
     b34:	01c12083          	lw	ra,28(sp)
     b38:	01812403          	lw	s0,24(sp)
     b3c:	02010113          	add	sp,sp,32
     b40:	00008067          	ret

00000b44 <display_input_matrix>:
     b44:	fc010113          	add	sp,sp,-64
     b48:	02112e23          	sw	ra,60(sp)
     b4c:	02812c23          	sw	s0,56(sp)
     b50:	02912a23          	sw	s1,52(sp)
     b54:	04010413          	add	s0,sp,64
     b58:	fca42623          	sw	a0,-52(s0)
     b5c:	fcb42423          	sw	a1,-56(s0)
     b60:	fcc42223          	sw	a2,-60(s0)
     b64:	fc842483          	lw	s1,-56(s0)
     b68:	fff48693          	add	a3,s1,-1
     b6c:	fed42223          	sw	a3,-28(s0)
     b70:	00048693          	mv	a3,s1
     b74:	00068813          	mv	a6,a3
     b78:	00000893          	li	a7,0
     b7c:	01d85693          	srl	a3,a6,0x1d
     b80:	00389793          	sll	a5,a7,0x3
     b84:	00f6e7b3          	or	a5,a3,a5
     b88:	00381713          	sll	a4,a6,0x3
     b8c:	fcc42783          	lw	a5,-52(s0)
     b90:	00b7a793          	slti	a5,a5,11
     b94:	0017c793          	xor	a5,a5,1
     b98:	fef401a3          	sb	a5,-29(s0)
     b9c:	fc842783          	lw	a5,-56(s0)
     ba0:	00b7a793          	slti	a5,a5,11
     ba4:	0017c793          	xor	a5,a5,1
     ba8:	fef40123          	sb	a5,-30(s0)
     bac:	000007b7          	lui	a5,0x0
     bb0:	00078513          	mv	a0,a5
     bb4:	00000097          	auipc	ra,0x0
     bb8:	000080e7          	jalr	ra # bb4 <display_input_matrix+0x70>
     bbc:	fe344783          	lbu	a5,-29(s0)
     bc0:	00078663          	beqz	a5,bcc <.L74>
     bc4:	00500793          	li	a5,5
     bc8:	0080006f          	j	bd0 <.L75>

00000bcc <.L74>:
     bcc:	fcc42783          	lw	a5,-52(s0)

00000bd0 <.L75>:
     bd0:	fcf42e23          	sw	a5,-36(s0)
     bd4:	fe042623          	sw	zero,-20(s0)
     bd8:	15c0006f          	j	d34 <.L76>

00000bdc <.L85>:
     bdc:	000007b7          	lui	a5,0x0
     be0:	00078513          	mv	a0,a5
     be4:	00000097          	auipc	ra,0x0
     be8:	000080e7          	jalr	ra # be4 <.L85+0x8>
     bec:	fe244783          	lbu	a5,-30(s0)
     bf0:	0c078863          	beqz	a5,cc0 <.L77>
     bf4:	fe042423          	sw	zero,-24(s0)
     bf8:	0480006f          	j	c40 <.L78>

00000bfc <.L79>:
     bfc:	00048713          	mv	a4,s1
     c00:	fec42783          	lw	a5,-20(s0)
     c04:	02f707b3          	mul	a5,a4,a5
     c08:	fc442703          	lw	a4,-60(s0)
     c0c:	00f70733          	add	a4,a4,a5
     c10:	fe842783          	lw	a5,-24(s0)
     c14:	00f707b3          	add	a5,a4,a5
     c18:	00078783          	lb	a5,0(a5) # 0 <MATMUL>
     c1c:	00078513          	mv	a0,a5
     c20:	00000097          	auipc	ra,0x0
     c24:	000080e7          	jalr	ra # c20 <.L79+0x24>
     c28:	02000513          	li	a0,32
     c2c:	00000097          	auipc	ra,0x0
     c30:	000080e7          	jalr	ra # c2c <.L79+0x30>
     c34:	fe842783          	lw	a5,-24(s0)
     c38:	00178793          	add	a5,a5,1
     c3c:	fef42423          	sw	a5,-24(s0)

00000c40 <.L78>:
     c40:	fe842703          	lw	a4,-24(s0)
     c44:	00400793          	li	a5,4
     c48:	fae7dae3          	bge	a5,a4,bfc <.L79>
     c4c:	000007b7          	lui	a5,0x0
     c50:	00078513          	mv	a0,a5
     c54:	00000097          	auipc	ra,0x0
     c58:	000080e7          	jalr	ra # c54 <.L78+0x14>
     c5c:	fc842783          	lw	a5,-56(s0)
     c60:	ffb78793          	add	a5,a5,-5 # fffffffb <.L126+0xffffe697>
     c64:	fef42423          	sw	a5,-24(s0)
     c68:	0480006f          	j	cb0 <.L80>

00000c6c <.L81>:
     c6c:	00048713          	mv	a4,s1
     c70:	fec42783          	lw	a5,-20(s0)
     c74:	02f707b3          	mul	a5,a4,a5
     c78:	fc442703          	lw	a4,-60(s0)
     c7c:	00f70733          	add	a4,a4,a5
     c80:	fe842783          	lw	a5,-24(s0)
     c84:	00f707b3          	add	a5,a4,a5
     c88:	00078783          	lb	a5,0(a5)
     c8c:	00078513          	mv	a0,a5
     c90:	00000097          	auipc	ra,0x0
     c94:	000080e7          	jalr	ra # c90 <.L81+0x24>
     c98:	02000513          	li	a0,32
     c9c:	00000097          	auipc	ra,0x0
     ca0:	000080e7          	jalr	ra # c9c <.L81+0x30>
     ca4:	fe842783          	lw	a5,-24(s0)
     ca8:	00178793          	add	a5,a5,1
     cac:	fef42423          	sw	a5,-24(s0)

00000cb0 <.L80>:
     cb0:	fe842703          	lw	a4,-24(s0)
     cb4:	fc842783          	lw	a5,-56(s0)
     cb8:	faf74ae3          	blt	a4,a5,c6c <.L81>
     cbc:	05c0006f          	j	d18 <.L82>

00000cc0 <.L77>:
     cc0:	fe042423          	sw	zero,-24(s0)
     cc4:	0480006f          	j	d0c <.L83>

00000cc8 <.L84>:
     cc8:	00048713          	mv	a4,s1
     ccc:	fec42783          	lw	a5,-20(s0)
     cd0:	02f707b3          	mul	a5,a4,a5
     cd4:	fc442703          	lw	a4,-60(s0)
     cd8:	00f70733          	add	a4,a4,a5
     cdc:	fe842783          	lw	a5,-24(s0)
     ce0:	00f707b3          	add	a5,a4,a5
     ce4:	00078783          	lb	a5,0(a5)
     ce8:	00078513          	mv	a0,a5
     cec:	00000097          	auipc	ra,0x0
     cf0:	000080e7          	jalr	ra # cec <.L84+0x24>
     cf4:	02000513          	li	a0,32
     cf8:	00000097          	auipc	ra,0x0
     cfc:	000080e7          	jalr	ra # cf8 <.L84+0x30>
     d00:	fe842783          	lw	a5,-24(s0)
     d04:	00178793          	add	a5,a5,1
     d08:	fef42423          	sw	a5,-24(s0)

00000d0c <.L83>:
     d0c:	fe842703          	lw	a4,-24(s0)
     d10:	fc842783          	lw	a5,-56(s0)
     d14:	faf74ae3          	blt	a4,a5,cc8 <.L84>

00000d18 <.L82>:
     d18:	000007b7          	lui	a5,0x0
     d1c:	00078513          	mv	a0,a5
     d20:	00000097          	auipc	ra,0x0
     d24:	000080e7          	jalr	ra # d20 <.L82+0x8>
     d28:	fec42783          	lw	a5,-20(s0)
     d2c:	00178793          	add	a5,a5,1 # 1 <MATMUL+0x1>
     d30:	fef42623          	sw	a5,-20(s0)

00000d34 <.L76>:
     d34:	fec42703          	lw	a4,-20(s0)
     d38:	fdc42783          	lw	a5,-36(s0)
     d3c:	eaf740e3          	blt	a4,a5,bdc <.L85>
     d40:	fe344783          	lbu	a5,-29(s0)
     d44:	18078463          	beqz	a5,ecc <.L86>
     d48:	000007b7          	lui	a5,0x0
     d4c:	00078513          	mv	a0,a5
     d50:	00000097          	auipc	ra,0x0
     d54:	000080e7          	jalr	ra # d50 <.L76+0x1c>
     d58:	fcc42783          	lw	a5,-52(s0)
     d5c:	ffb78793          	add	a5,a5,-5 # fffffffb <.L126+0xffffe697>
     d60:	fef42623          	sw	a5,-20(s0)
     d64:	15c0006f          	j	ec0 <.L87>

00000d68 <.L96>:
     d68:	000007b7          	lui	a5,0x0
     d6c:	00078513          	mv	a0,a5
     d70:	00000097          	auipc	ra,0x0
     d74:	000080e7          	jalr	ra # d70 <.L96+0x8>
     d78:	fe244783          	lbu	a5,-30(s0)
     d7c:	0c078863          	beqz	a5,e4c <.L88>
     d80:	fe042423          	sw	zero,-24(s0)
     d84:	0480006f          	j	dcc <.L89>

00000d88 <.L90>:
     d88:	00048713          	mv	a4,s1
     d8c:	fec42783          	lw	a5,-20(s0)
     d90:	02f707b3          	mul	a5,a4,a5
     d94:	fc442703          	lw	a4,-60(s0)
     d98:	00f70733          	add	a4,a4,a5
     d9c:	fe842783          	lw	a5,-24(s0)
     da0:	00f707b3          	add	a5,a4,a5
     da4:	00078783          	lb	a5,0(a5) # 0 <MATMUL>
     da8:	00078513          	mv	a0,a5
     dac:	00000097          	auipc	ra,0x0
     db0:	000080e7          	jalr	ra # dac <.L90+0x24>
     db4:	02000513          	li	a0,32
     db8:	00000097          	auipc	ra,0x0
     dbc:	000080e7          	jalr	ra # db8 <.L90+0x30>
     dc0:	fe842783          	lw	a5,-24(s0)
     dc4:	00178793          	add	a5,a5,1
     dc8:	fef42423          	sw	a5,-24(s0)

00000dcc <.L89>:
     dcc:	fe842703          	lw	a4,-24(s0)
     dd0:	00400793          	li	a5,4
     dd4:	fae7dae3          	bge	a5,a4,d88 <.L90>
     dd8:	000007b7          	lui	a5,0x0
     ddc:	00078513          	mv	a0,a5
     de0:	00000097          	auipc	ra,0x0
     de4:	000080e7          	jalr	ra # de0 <.L89+0x14>
     de8:	fc842783          	lw	a5,-56(s0)
     dec:	ffb78793          	add	a5,a5,-5 # fffffffb <.L126+0xffffe697>
     df0:	fef42423          	sw	a5,-24(s0)
     df4:	0480006f          	j	e3c <.L91>

00000df8 <.L92>:
     df8:	00048713          	mv	a4,s1
     dfc:	fec42783          	lw	a5,-20(s0)
     e00:	02f707b3          	mul	a5,a4,a5
     e04:	fc442703          	lw	a4,-60(s0)
     e08:	00f70733          	add	a4,a4,a5
     e0c:	fe842783          	lw	a5,-24(s0)
     e10:	00f707b3          	add	a5,a4,a5
     e14:	00078783          	lb	a5,0(a5)
     e18:	00078513          	mv	a0,a5
     e1c:	00000097          	auipc	ra,0x0
     e20:	000080e7          	jalr	ra # e1c <.L92+0x24>
     e24:	02000513          	li	a0,32
     e28:	00000097          	auipc	ra,0x0
     e2c:	000080e7          	jalr	ra # e28 <.L92+0x30>
     e30:	fe842783          	lw	a5,-24(s0)
     e34:	00178793          	add	a5,a5,1
     e38:	fef42423          	sw	a5,-24(s0)

00000e3c <.L91>:
     e3c:	fe842703          	lw	a4,-24(s0)
     e40:	fc842783          	lw	a5,-56(s0)
     e44:	faf74ae3          	blt	a4,a5,df8 <.L92>
     e48:	05c0006f          	j	ea4 <.L93>

00000e4c <.L88>:
     e4c:	fe042423          	sw	zero,-24(s0)
     e50:	0480006f          	j	e98 <.L94>

00000e54 <.L95>:
     e54:	00048713          	mv	a4,s1
     e58:	fec42783          	lw	a5,-20(s0)
     e5c:	02f707b3          	mul	a5,a4,a5
     e60:	fc442703          	lw	a4,-60(s0)
     e64:	00f70733          	add	a4,a4,a5
     e68:	fe842783          	lw	a5,-24(s0)
     e6c:	00f707b3          	add	a5,a4,a5
     e70:	00078783          	lb	a5,0(a5)
     e74:	00078513          	mv	a0,a5
     e78:	00000097          	auipc	ra,0x0
     e7c:	000080e7          	jalr	ra # e78 <.L95+0x24>
     e80:	02000513          	li	a0,32
     e84:	00000097          	auipc	ra,0x0
     e88:	000080e7          	jalr	ra # e84 <.L95+0x30>
     e8c:	fe842783          	lw	a5,-24(s0)
     e90:	00178793          	add	a5,a5,1
     e94:	fef42423          	sw	a5,-24(s0)

00000e98 <.L94>:
     e98:	fe842703          	lw	a4,-24(s0)
     e9c:	fc842783          	lw	a5,-56(s0)
     ea0:	faf74ae3          	blt	a4,a5,e54 <.L95>

00000ea4 <.L93>:
     ea4:	000007b7          	lui	a5,0x0
     ea8:	00078513          	mv	a0,a5
     eac:	00000097          	auipc	ra,0x0
     eb0:	000080e7          	jalr	ra # eac <.L93+0x8>
     eb4:	fec42783          	lw	a5,-20(s0)
     eb8:	00178793          	add	a5,a5,1 # 1 <MATMUL+0x1>
     ebc:	fef42623          	sw	a5,-20(s0)

00000ec0 <.L87>:
     ec0:	fec42703          	lw	a4,-20(s0)
     ec4:	fcc42783          	lw	a5,-52(s0)
     ec8:	eaf740e3          	blt	a4,a5,d68 <.L96>

00000ecc <.L86>:
     ecc:	000007b7          	lui	a5,0x0
     ed0:	00078513          	mv	a0,a5
     ed4:	00000097          	auipc	ra,0x0
     ed8:	000080e7          	jalr	ra # ed4 <.L86+0x8>
     edc:	00000013          	nop
     ee0:	03c12083          	lw	ra,60(sp)
     ee4:	03812403          	lw	s0,56(sp)
     ee8:	03412483          	lw	s1,52(sp)
     eec:	04010113          	add	sp,sp,64
     ef0:	00008067          	ret

00000ef4 <display_result_matrix>:
     ef4:	fc010113          	add	sp,sp,-64
     ef8:	02112e23          	sw	ra,60(sp)
     efc:	02812c23          	sw	s0,56(sp)
     f00:	02912a23          	sw	s1,52(sp)
     f04:	04010413          	add	s0,sp,64
     f08:	fca42623          	sw	a0,-52(s0)
     f0c:	fcb42423          	sw	a1,-56(s0)
     f10:	fcc42223          	sw	a2,-60(s0)
     f14:	fc842483          	lw	s1,-56(s0)
     f18:	fff48693          	add	a3,s1,-1
     f1c:	fed42223          	sw	a3,-28(s0)
     f20:	00048693          	mv	a3,s1
     f24:	00068813          	mv	a6,a3
     f28:	00000893          	li	a7,0
     f2c:	01b85693          	srl	a3,a6,0x1b
     f30:	00589793          	sll	a5,a7,0x5
     f34:	00f6e7b3          	or	a5,a3,a5
     f38:	00581713          	sll	a4,a6,0x5
     f3c:	fcc42783          	lw	a5,-52(s0)
     f40:	00b7a793          	slti	a5,a5,11
     f44:	0017c793          	xor	a5,a5,1
     f48:	fef401a3          	sb	a5,-29(s0)
     f4c:	fc842783          	lw	a5,-56(s0)
     f50:	00b7a793          	slti	a5,a5,11
     f54:	0017c793          	xor	a5,a5,1
     f58:	fef40123          	sb	a5,-30(s0)
     f5c:	000007b7          	lui	a5,0x0
     f60:	00078513          	mv	a0,a5
     f64:	00000097          	auipc	ra,0x0
     f68:	000080e7          	jalr	ra # f64 <display_result_matrix+0x70>
     f6c:	fe344783          	lbu	a5,-29(s0)
     f70:	00078663          	beqz	a5,f7c <.L98>
     f74:	00500793          	li	a5,5
     f78:	0080006f          	j	f80 <.L99>

00000f7c <.L98>:
     f7c:	fcc42783          	lw	a5,-52(s0)

00000f80 <.L99>:
     f80:	fcf42e23          	sw	a5,-36(s0)
     f84:	fe042623          	sw	zero,-20(s0)
     f88:	1740006f          	j	10fc <.L100>

00000f8c <.L109>:
     f8c:	000007b7          	lui	a5,0x0
     f90:	00078513          	mv	a0,a5
     f94:	00000097          	auipc	ra,0x0
     f98:	000080e7          	jalr	ra # f94 <.L109+0x8>
     f9c:	fe244783          	lbu	a5,-30(s0)
     fa0:	0e078063          	beqz	a5,1080 <.L101>
     fa4:	fe042423          	sw	zero,-24(s0)
     fa8:	0500006f          	j	ff8 <.L102>

00000fac <.L103>:
     fac:	00048713          	mv	a4,s1
     fb0:	fec42783          	lw	a5,-20(s0)
     fb4:	02f707b3          	mul	a5,a4,a5
     fb8:	00279793          	sll	a5,a5,0x2
     fbc:	fc442703          	lw	a4,-60(s0)
     fc0:	00f70733          	add	a4,a4,a5
     fc4:	fe842783          	lw	a5,-24(s0)
     fc8:	00279793          	sll	a5,a5,0x2
     fcc:	00f707b3          	add	a5,a4,a5
     fd0:	0007a783          	lw	a5,0(a5) # 0 <MATMUL>
     fd4:	00078513          	mv	a0,a5
     fd8:	00000097          	auipc	ra,0x0
     fdc:	000080e7          	jalr	ra # fd8 <.L103+0x2c>
     fe0:	02000513          	li	a0,32
     fe4:	00000097          	auipc	ra,0x0
     fe8:	000080e7          	jalr	ra # fe4 <.L103+0x38>
     fec:	fe842783          	lw	a5,-24(s0)
     ff0:	00178793          	add	a5,a5,1
     ff4:	fef42423          	sw	a5,-24(s0)

00000ff8 <.L102>:
     ff8:	fe842703          	lw	a4,-24(s0)
     ffc:	00400793          	li	a5,4
    1000:	fae7d6e3          	bge	a5,a4,fac <.L103>
    1004:	000007b7          	lui	a5,0x0
    1008:	00078513          	mv	a0,a5
    100c:	00000097          	auipc	ra,0x0
    1010:	000080e7          	jalr	ra # 100c <.L102+0x14>
    1014:	fc842783          	lw	a5,-56(s0)
    1018:	ffb78793          	add	a5,a5,-5 # fffffffb <.L126+0xffffe697>
    101c:	fef42423          	sw	a5,-24(s0)
    1020:	0500006f          	j	1070 <.L104>

00001024 <.L105>:
    1024:	00048713          	mv	a4,s1
    1028:	fec42783          	lw	a5,-20(s0)
    102c:	02f707b3          	mul	a5,a4,a5
    1030:	00279793          	sll	a5,a5,0x2
    1034:	fc442703          	lw	a4,-60(s0)
    1038:	00f70733          	add	a4,a4,a5
    103c:	fe842783          	lw	a5,-24(s0)
    1040:	00279793          	sll	a5,a5,0x2
    1044:	00f707b3          	add	a5,a4,a5
    1048:	0007a783          	lw	a5,0(a5)
    104c:	00078513          	mv	a0,a5
    1050:	00000097          	auipc	ra,0x0
    1054:	000080e7          	jalr	ra # 1050 <.L105+0x2c>
    1058:	02000513          	li	a0,32
    105c:	00000097          	auipc	ra,0x0
    1060:	000080e7          	jalr	ra # 105c <.L105+0x38>
    1064:	fe842783          	lw	a5,-24(s0)
    1068:	00178793          	add	a5,a5,1
    106c:	fef42423          	sw	a5,-24(s0)

00001070 <.L104>:
    1070:	fe842703          	lw	a4,-24(s0)
    1074:	fc842783          	lw	a5,-56(s0)
    1078:	faf746e3          	blt	a4,a5,1024 <.L105>
    107c:	0640006f          	j	10e0 <.L106>

00001080 <.L101>:
    1080:	fe042423          	sw	zero,-24(s0)
    1084:	0500006f          	j	10d4 <.L107>

00001088 <.L108>:
    1088:	00048713          	mv	a4,s1
    108c:	fec42783          	lw	a5,-20(s0)
    1090:	02f707b3          	mul	a5,a4,a5
    1094:	00279793          	sll	a5,a5,0x2
    1098:	fc442703          	lw	a4,-60(s0)
    109c:	00f70733          	add	a4,a4,a5
    10a0:	fe842783          	lw	a5,-24(s0)
    10a4:	00279793          	sll	a5,a5,0x2
    10a8:	00f707b3          	add	a5,a4,a5
    10ac:	0007a783          	lw	a5,0(a5)
    10b0:	00078513          	mv	a0,a5
    10b4:	00000097          	auipc	ra,0x0
    10b8:	000080e7          	jalr	ra # 10b4 <.L108+0x2c>
    10bc:	02000513          	li	a0,32
    10c0:	00000097          	auipc	ra,0x0
    10c4:	000080e7          	jalr	ra # 10c0 <.L108+0x38>
    10c8:	fe842783          	lw	a5,-24(s0)
    10cc:	00178793          	add	a5,a5,1
    10d0:	fef42423          	sw	a5,-24(s0)

000010d4 <.L107>:
    10d4:	fe842703          	lw	a4,-24(s0)
    10d8:	fc842783          	lw	a5,-56(s0)
    10dc:	faf746e3          	blt	a4,a5,1088 <.L108>

000010e0 <.L106>:
    10e0:	000007b7          	lui	a5,0x0
    10e4:	00078513          	mv	a0,a5
    10e8:	00000097          	auipc	ra,0x0
    10ec:	000080e7          	jalr	ra # 10e8 <.L106+0x8>
    10f0:	fec42783          	lw	a5,-20(s0)
    10f4:	00178793          	add	a5,a5,1 # 1 <MATMUL+0x1>
    10f8:	fef42623          	sw	a5,-20(s0)

000010fc <.L100>:
    10fc:	fec42703          	lw	a4,-20(s0)
    1100:	fdc42783          	lw	a5,-36(s0)
    1104:	e8f744e3          	blt	a4,a5,f8c <.L109>
    1108:	fe344783          	lbu	a5,-29(s0)
    110c:	1a078063          	beqz	a5,12ac <.L110>
    1110:	000007b7          	lui	a5,0x0
    1114:	00078513          	mv	a0,a5
    1118:	00000097          	auipc	ra,0x0
    111c:	000080e7          	jalr	ra # 1118 <.L100+0x1c>
    1120:	fcc42783          	lw	a5,-52(s0)
    1124:	ffb78793          	add	a5,a5,-5 # fffffffb <.L126+0xffffe697>
    1128:	fef42623          	sw	a5,-20(s0)
    112c:	1740006f          	j	12a0 <.L111>

00001130 <.L120>:
    1130:	000007b7          	lui	a5,0x0
    1134:	00078513          	mv	a0,a5
    1138:	00000097          	auipc	ra,0x0
    113c:	000080e7          	jalr	ra # 1138 <.L120+0x8>
    1140:	fe244783          	lbu	a5,-30(s0)
    1144:	0e078063          	beqz	a5,1224 <.L112>
    1148:	fe042423          	sw	zero,-24(s0)
    114c:	0500006f          	j	119c <.L113>

00001150 <.L114>:
    1150:	00048713          	mv	a4,s1
    1154:	fec42783          	lw	a5,-20(s0)
    1158:	02f707b3          	mul	a5,a4,a5
    115c:	00279793          	sll	a5,a5,0x2
    1160:	fc442703          	lw	a4,-60(s0)
    1164:	00f70733          	add	a4,a4,a5
    1168:	fe842783          	lw	a5,-24(s0)
    116c:	00279793          	sll	a5,a5,0x2
    1170:	00f707b3          	add	a5,a4,a5
    1174:	0007a783          	lw	a5,0(a5) # 0 <MATMUL>
    1178:	00078513          	mv	a0,a5
    117c:	00000097          	auipc	ra,0x0
    1180:	000080e7          	jalr	ra # 117c <.L114+0x2c>
    1184:	02000513          	li	a0,32
    1188:	00000097          	auipc	ra,0x0
    118c:	000080e7          	jalr	ra # 1188 <.L114+0x38>
    1190:	fe842783          	lw	a5,-24(s0)
    1194:	00178793          	add	a5,a5,1
    1198:	fef42423          	sw	a5,-24(s0)

0000119c <.L113>:
    119c:	fe842703          	lw	a4,-24(s0)
    11a0:	00400793          	li	a5,4
    11a4:	fae7d6e3          	bge	a5,a4,1150 <.L114>
    11a8:	000007b7          	lui	a5,0x0
    11ac:	00078513          	mv	a0,a5
    11b0:	00000097          	auipc	ra,0x0
    11b4:	000080e7          	jalr	ra # 11b0 <.L113+0x14>
    11b8:	fc842783          	lw	a5,-56(s0)
    11bc:	ffb78793          	add	a5,a5,-5 # fffffffb <.L126+0xffffe697>
    11c0:	fef42423          	sw	a5,-24(s0)
    11c4:	0500006f          	j	1214 <.L115>

000011c8 <.L116>:
    11c8:	00048713          	mv	a4,s1
    11cc:	fec42783          	lw	a5,-20(s0)
    11d0:	02f707b3          	mul	a5,a4,a5
    11d4:	00279793          	sll	a5,a5,0x2
    11d8:	fc442703          	lw	a4,-60(s0)
    11dc:	00f70733          	add	a4,a4,a5
    11e0:	fe842783          	lw	a5,-24(s0)
    11e4:	00279793          	sll	a5,a5,0x2
    11e8:	00f707b3          	add	a5,a4,a5
    11ec:	0007a783          	lw	a5,0(a5)
    11f0:	00078513          	mv	a0,a5
    11f4:	00000097          	auipc	ra,0x0
    11f8:	000080e7          	jalr	ra # 11f4 <.L116+0x2c>
    11fc:	02000513          	li	a0,32
    1200:	00000097          	auipc	ra,0x0
    1204:	000080e7          	jalr	ra # 1200 <.L116+0x38>
    1208:	fe842783          	lw	a5,-24(s0)
    120c:	00178793          	add	a5,a5,1
    1210:	fef42423          	sw	a5,-24(s0)

00001214 <.L115>:
    1214:	fe842703          	lw	a4,-24(s0)
    1218:	fc842783          	lw	a5,-56(s0)
    121c:	faf746e3          	blt	a4,a5,11c8 <.L116>
    1220:	0640006f          	j	1284 <.L117>

00001224 <.L112>:
    1224:	fe042423          	sw	zero,-24(s0)
    1228:	0500006f          	j	1278 <.L118>

0000122c <.L119>:
    122c:	00048713          	mv	a4,s1
    1230:	fec42783          	lw	a5,-20(s0)
    1234:	02f707b3          	mul	a5,a4,a5
    1238:	00279793          	sll	a5,a5,0x2
    123c:	fc442703          	lw	a4,-60(s0)
    1240:	00f70733          	add	a4,a4,a5
    1244:	fe842783          	lw	a5,-24(s0)
    1248:	00279793          	sll	a5,a5,0x2
    124c:	00f707b3          	add	a5,a4,a5
    1250:	0007a783          	lw	a5,0(a5)
    1254:	00078513          	mv	a0,a5
    1258:	00000097          	auipc	ra,0x0
    125c:	000080e7          	jalr	ra # 1258 <.L119+0x2c>
    1260:	02000513          	li	a0,32
    1264:	00000097          	auipc	ra,0x0
    1268:	000080e7          	jalr	ra # 1264 <.L119+0x38>
    126c:	fe842783          	lw	a5,-24(s0)
    1270:	00178793          	add	a5,a5,1
    1274:	fef42423          	sw	a5,-24(s0)

00001278 <.L118>:
    1278:	fe842703          	lw	a4,-24(s0)
    127c:	fc842783          	lw	a5,-56(s0)
    1280:	faf746e3          	blt	a4,a5,122c <.L119>

00001284 <.L117>:
    1284:	000007b7          	lui	a5,0x0
    1288:	00078513          	mv	a0,a5
    128c:	00000097          	auipc	ra,0x0
    1290:	000080e7          	jalr	ra # 128c <.L117+0x8>
    1294:	fec42783          	lw	a5,-20(s0)
    1298:	00178793          	add	a5,a5,1 # 1 <MATMUL+0x1>
    129c:	fef42623          	sw	a5,-20(s0)

000012a0 <.L111>:
    12a0:	fec42703          	lw	a4,-20(s0)
    12a4:	fcc42783          	lw	a5,-52(s0)
    12a8:	e8f744e3          	blt	a4,a5,1130 <.L120>

000012ac <.L110>:
    12ac:	000007b7          	lui	a5,0x0
    12b0:	00078513          	mv	a0,a5
    12b4:	00000097          	auipc	ra,0x0
    12b8:	000080e7          	jalr	ra # 12b4 <.L110+0x8>
    12bc:	00000013          	nop
    12c0:	03c12083          	lw	ra,60(sp)
    12c4:	03812403          	lw	s0,56(sp)
    12c8:	03412483          	lw	s1,52(sp)
    12cc:	04010113          	add	sp,sp,64
    12d0:	00008067          	ret

000012d4 <main>:
    12d4:	ea010113          	add	sp,sp,-352
    12d8:	14112e23          	sw	ra,348(sp)
    12dc:	14812c23          	sw	s0,344(sp)
    12e0:	14912a23          	sw	s1,340(sp)
    12e4:	15212823          	sw	s2,336(sp)
    12e8:	15312623          	sw	s3,332(sp)
    12ec:	15412423          	sw	s4,328(sp)
    12f0:	15512223          	sw	s5,324(sp)
    12f4:	15612023          	sw	s6,320(sp)
    12f8:	13712e23          	sw	s7,316(sp)
    12fc:	13812c23          	sw	s8,312(sp)
    1300:	13912a23          	sw	s9,308(sp)
    1304:	13a12823          	sw	s10,304(sp)
    1308:	13b12623          	sw	s11,300(sp)
    130c:	16010413          	add	s0,sp,352
    1310:	00000097          	auipc	ra,0x0
    1314:	000080e7          	jalr	ra # 1310 <main+0x3c>
    1318:	fa0407a3          	sb	zero,-81(s0)
    131c:	51500513          	li	a0,1301
    1320:	00000097          	auipc	ra,0x0
    1324:	000080e7          	jalr	ra # 1320 <main+0x4c>

00001328 <.L130>:
    1328:	00010793          	mv	a5,sp
    132c:	eaf42223          	sw	a5,-348(s0)
    1330:	000007b7          	lui	a5,0x0
    1334:	00078513          	mv	a0,a5
    1338:	00000097          	auipc	ra,0x0
    133c:	000080e7          	jalr	ra # 1338 <.L130+0x10>
    1340:	000007b7          	lui	a5,0x0
    1344:	00078513          	mv	a0,a5
    1348:	00000097          	auipc	ra,0x0
    134c:	000080e7          	jalr	ra # 1348 <.L130+0x20>
    1350:	000007b7          	lui	a5,0x0
    1354:	00078513          	mv	a0,a5
    1358:	00000097          	auipc	ra,0x0
    135c:	000080e7          	jalr	ra # 1358 <.L130+0x30>
    1360:	00000097          	auipc	ra,0x0
    1364:	000080e7          	jalr	ra # 1360 <.L130+0x38>
    1368:	faa42423          	sw	a0,-88(s0)
    136c:	fa842783          	lw	a5,-88(s0)
    1370:	00078513          	mv	a0,a5
    1374:	00000097          	auipc	ra,0x0
    1378:	000080e7          	jalr	ra # 1374 <.L130+0x4c>
    137c:	000007b7          	lui	a5,0x0
    1380:	00078513          	mv	a0,a5
    1384:	00000097          	auipc	ra,0x0
    1388:	000080e7          	jalr	ra # 1384 <.L130+0x5c>
    138c:	00000097          	auipc	ra,0x0
    1390:	000080e7          	jalr	ra # 138c <.L130+0x64>
    1394:	faa42223          	sw	a0,-92(s0)
    1398:	fa442783          	lw	a5,-92(s0)
    139c:	00078513          	mv	a0,a5
    13a0:	00000097          	auipc	ra,0x0
    13a4:	000080e7          	jalr	ra # 13a0 <.L130+0x78>
    13a8:	000007b7          	lui	a5,0x0
    13ac:	00078513          	mv	a0,a5
    13b0:	00000097          	auipc	ra,0x0
    13b4:	000080e7          	jalr	ra # 13b0 <.L130+0x88>
    13b8:	00000097          	auipc	ra,0x0
    13bc:	000080e7          	jalr	ra # 13b8 <.L130+0x90>
    13c0:	faa42023          	sw	a0,-96(s0)
    13c4:	fa042783          	lw	a5,-96(s0)
    13c8:	00078513          	mv	a0,a5
    13cc:	00000097          	auipc	ra,0x0
    13d0:	000080e7          	jalr	ra # 13cc <.L130+0xa4>
    13d4:	fa442603          	lw	a2,-92(s0)
    13d8:	eac42023          	sw	a2,-352(s0)
    13dc:	fa842683          	lw	a3,-88(s0)
    13e0:	00060793          	mv	a5,a2
    13e4:	fff78793          	add	a5,a5,-1 # ffffffff <.L126+0xffffe69b>
    13e8:	f8f42e23          	sw	a5,-100(s0)
    13ec:	f0c42423          	sw	a2,-248(s0)
    13f0:	f0042623          	sw	zero,-244(s0)
    13f4:	f0842503          	lw	a0,-248(s0)
    13f8:	f0c42583          	lw	a1,-244(s0)
    13fc:	00050793          	mv	a5,a0
    1400:	01d7d793          	srl	a5,a5,0x1d
    1404:	00058713          	mv	a4,a1
    1408:	00371713          	sll	a4,a4,0x3
    140c:	f4e42a23          	sw	a4,-172(s0)
    1410:	f5442703          	lw	a4,-172(s0)
    1414:	00e7e7b3          	or	a5,a5,a4
    1418:	f4f42a23          	sw	a5,-172(s0)
    141c:	00050793          	mv	a5,a0
    1420:	00379793          	sll	a5,a5,0x3
    1424:	f4f42823          	sw	a5,-176(s0)
    1428:	00068793          	mv	a5,a3
    142c:	fff78793          	add	a5,a5,-1
    1430:	f8f42c23          	sw	a5,-104(s0)
    1434:	f0c42023          	sw	a2,-256(s0)
    1438:	f0042223          	sw	zero,-252(s0)
    143c:	eed42c23          	sw	a3,-264(s0)
    1440:	ee042e23          	sw	zero,-260(s0)
    1444:	f0042303          	lw	t1,-256(s0)
    1448:	f0442383          	lw	t2,-252(s0)
    144c:	00038793          	mv	a5,t2
    1450:	ef842803          	lw	a6,-264(s0)
    1454:	efc42883          	lw	a7,-260(s0)
    1458:	00080713          	mv	a4,a6
    145c:	02e78733          	mul	a4,a5,a4
    1460:	00088793          	mv	a5,a7
    1464:	00030593          	mv	a1,t1
    1468:	02b787b3          	mul	a5,a5,a1
    146c:	00f70733          	add	a4,a4,a5
    1470:	00030793          	mv	a5,t1
    1474:	00080593          	mv	a1,a6
    1478:	02b787b3          	mul	a5,a5,a1
    147c:	00030593          	mv	a1,t1
    1480:	00080513          	mv	a0,a6
    1484:	02a5b5b3          	mulhu	a1,a1,a0
    1488:	f6b42623          	sw	a1,-148(s0)
    148c:	f6f42423          	sw	a5,-152(s0)
    1490:	f6c42783          	lw	a5,-148(s0)
    1494:	00f707b3          	add	a5,a4,a5
    1498:	f6f42623          	sw	a5,-148(s0)
    149c:	f6842503          	lw	a0,-152(s0)
    14a0:	f6c42583          	lw	a1,-148(s0)
    14a4:	00050793          	mv	a5,a0
    14a8:	01d7d793          	srl	a5,a5,0x1d
    14ac:	00058713          	mv	a4,a1
    14b0:	00371713          	sll	a4,a4,0x3
    14b4:	f4e42623          	sw	a4,-180(s0)
    14b8:	f4c42703          	lw	a4,-180(s0)
    14bc:	00e7e7b3          	or	a5,a5,a4
    14c0:	f4f42623          	sw	a5,-180(s0)
    14c4:	00050793          	mv	a5,a0
    14c8:	00379793          	sll	a5,a5,0x3
    14cc:	f4f42423          	sw	a5,-184(s0)
    14d0:	eec42823          	sw	a2,-272(s0)
    14d4:	ee042a23          	sw	zero,-268(s0)
    14d8:	eed42423          	sw	a3,-280(s0)
    14dc:	ee042623          	sw	zero,-276(s0)
    14e0:	ef042303          	lw	t1,-272(s0)
    14e4:	ef442383          	lw	t2,-268(s0)
    14e8:	00038793          	mv	a5,t2
    14ec:	ee842803          	lw	a6,-280(s0)
    14f0:	eec42883          	lw	a7,-276(s0)
    14f4:	00080713          	mv	a4,a6
    14f8:	02e78733          	mul	a4,a5,a4
    14fc:	00088793          	mv	a5,a7
    1500:	00030593          	mv	a1,t1
    1504:	02b787b3          	mul	a5,a5,a1
    1508:	00f70733          	add	a4,a4,a5
    150c:	00030793          	mv	a5,t1
    1510:	00080593          	mv	a1,a6
    1514:	02b787b3          	mul	a5,a5,a1
    1518:	00030593          	mv	a1,t1
    151c:	00080513          	mv	a0,a6
    1520:	02a5b5b3          	mulhu	a1,a1,a0
    1524:	f6b42223          	sw	a1,-156(s0)
    1528:	f6f42023          	sw	a5,-160(s0)
    152c:	f6442783          	lw	a5,-156(s0)
    1530:	00f707b3          	add	a5,a4,a5
    1534:	f6f42223          	sw	a5,-156(s0)
    1538:	f6042503          	lw	a0,-160(s0)
    153c:	f6442583          	lw	a1,-156(s0)
    1540:	00050793          	mv	a5,a0
    1544:	01d7d793          	srl	a5,a5,0x1d
    1548:	00058713          	mv	a4,a1
    154c:	00371713          	sll	a4,a4,0x3
    1550:	f4e42223          	sw	a4,-188(s0)
    1554:	f4442703          	lw	a4,-188(s0)
    1558:	00e7e7b3          	or	a5,a5,a4
    155c:	f4f42223          	sw	a5,-188(s0)
    1560:	00050793          	mv	a5,a0
    1564:	00379793          	sll	a5,a5,0x3
    1568:	f4f42023          	sw	a5,-192(s0)
    156c:	02d607b3          	mul	a5,a2,a3
    1570:	00f78793          	add	a5,a5,15
    1574:	0047d793          	srl	a5,a5,0x4
    1578:	00479793          	sll	a5,a5,0x4
    157c:	40f10133          	sub	sp,sp,a5
    1580:	00010793          	mv	a5,sp
    1584:	00078793          	mv	a5,a5
    1588:	f8f42a23          	sw	a5,-108(s0)
    158c:	fa042483          	lw	s1,-96(s0)
    1590:	fa442683          	lw	a3,-92(s0)
    1594:	00048793          	mv	a5,s1
    1598:	fff78793          	add	a5,a5,-1
    159c:	f8f42823          	sw	a5,-112(s0)
    15a0:	ee942023          	sw	s1,-288(s0)
    15a4:	ee042223          	sw	zero,-284(s0)
    15a8:	ee042583          	lw	a1,-288(s0)
    15ac:	ee442603          	lw	a2,-284(s0)
    15b0:	00058793          	mv	a5,a1
    15b4:	01d7d793          	srl	a5,a5,0x1d
    15b8:	00060713          	mv	a4,a2
    15bc:	00371713          	sll	a4,a4,0x3
    15c0:	f2e42e23          	sw	a4,-196(s0)
    15c4:	f3c42703          	lw	a4,-196(s0)
    15c8:	00e7e7b3          	or	a5,a5,a4
    15cc:	f2f42e23          	sw	a5,-196(s0)
    15d0:	00058793          	mv	a5,a1
    15d4:	00379793          	sll	a5,a5,0x3
    15d8:	f2f42c23          	sw	a5,-200(s0)
    15dc:	00068793          	mv	a5,a3
    15e0:	fff78793          	add	a5,a5,-1
    15e4:	f8f42623          	sw	a5,-116(s0)
    15e8:	ec942c23          	sw	s1,-296(s0)
    15ec:	ec042e23          	sw	zero,-292(s0)
    15f0:	ecd42823          	sw	a3,-304(s0)
    15f4:	ec042a23          	sw	zero,-300(s0)
    15f8:	ed842803          	lw	a6,-296(s0)
    15fc:	edc42883          	lw	a7,-292(s0)
    1600:	00088793          	mv	a5,a7
    1604:	ed042503          	lw	a0,-304(s0)
    1608:	ed442583          	lw	a1,-300(s0)
    160c:	00050713          	mv	a4,a0
    1610:	02e78733          	mul	a4,a5,a4
    1614:	00058793          	mv	a5,a1
    1618:	00080613          	mv	a2,a6
    161c:	02c787b3          	mul	a5,a5,a2
    1620:	00f70733          	add	a4,a4,a5
    1624:	00080793          	mv	a5,a6
    1628:	00050613          	mv	a2,a0
    162c:	02c787b3          	mul	a5,a5,a2
    1630:	00080613          	mv	a2,a6
    1634:	00050593          	mv	a1,a0
    1638:	02b63633          	mulhu	a2,a2,a1
    163c:	f4c42e23          	sw	a2,-164(s0)
    1640:	f4f42c23          	sw	a5,-168(s0)
    1644:	f5c42783          	lw	a5,-164(s0)
    1648:	00f707b3          	add	a5,a4,a5
    164c:	f4f42e23          	sw	a5,-164(s0)
    1650:	f5842583          	lw	a1,-168(s0)
    1654:	f5c42603          	lw	a2,-164(s0)
    1658:	00058793          	mv	a5,a1
    165c:	01d7d793          	srl	a5,a5,0x1d
    1660:	00060713          	mv	a4,a2
    1664:	00371713          	sll	a4,a4,0x3
    1668:	f2e42a23          	sw	a4,-204(s0)
    166c:	f3442703          	lw	a4,-204(s0)
    1670:	00e7e7b3          	or	a5,a5,a4
    1674:	f2f42a23          	sw	a5,-204(s0)
    1678:	00058793          	mv	a5,a1
    167c:	00379793          	sll	a5,a5,0x3
    1680:	f2f42823          	sw	a5,-208(s0)
    1684:	ec942423          	sw	s1,-312(s0)
    1688:	ec042623          	sw	zero,-308(s0)
    168c:	ecd42023          	sw	a3,-320(s0)
    1690:	ec042223          	sw	zero,-316(s0)
    1694:	ec842803          	lw	a6,-312(s0)
    1698:	ecc42883          	lw	a7,-308(s0)
    169c:	00088793          	mv	a5,a7
    16a0:	ec042503          	lw	a0,-320(s0)
    16a4:	ec442583          	lw	a1,-316(s0)
    16a8:	00050713          	mv	a4,a0
    16ac:	02e78733          	mul	a4,a5,a4
    16b0:	00058793          	mv	a5,a1
    16b4:	00080613          	mv	a2,a6
    16b8:	02c787b3          	mul	a5,a5,a2
    16bc:	00f70733          	add	a4,a4,a5
    16c0:	00080793          	mv	a5,a6
    16c4:	00050613          	mv	a2,a0
    16c8:	02c787b3          	mul	a5,a5,a2
    16cc:	00080613          	mv	a2,a6
    16d0:	00050593          	mv	a1,a0
    16d4:	02b63bb3          	mulhu	s7,a2,a1
    16d8:	00078b13          	mv	s6,a5
    16dc:	017707b3          	add	a5,a4,s7
    16e0:	00078b93          	mv	s7,a5
    16e4:	01db5793          	srl	a5,s6,0x1d
    16e8:	003b9713          	sll	a4,s7,0x3
    16ec:	f2e42623          	sw	a4,-212(s0)
    16f0:	f2c42703          	lw	a4,-212(s0)
    16f4:	00e7e7b3          	or	a5,a5,a4
    16f8:	f2f42623          	sw	a5,-212(s0)
    16fc:	003b1793          	sll	a5,s6,0x3
    1700:	f2f42423          	sw	a5,-216(s0)
    1704:	02d487b3          	mul	a5,s1,a3
    1708:	00f78793          	add	a5,a5,15
    170c:	0047d793          	srl	a5,a5,0x4
    1710:	00479793          	sll	a5,a5,0x4
    1714:	40f10133          	sub	sp,sp,a5
    1718:	00010793          	mv	a5,sp
    171c:	00078793          	mv	a5,a5
    1720:	f8f42423          	sw	a5,-120(s0)
    1724:	fa042683          	lw	a3,-96(s0)
    1728:	fa842603          	lw	a2,-88(s0)
    172c:	00068793          	mv	a5,a3
    1730:	fff78793          	add	a5,a5,-1
    1734:	f8f42223          	sw	a5,-124(s0)
    1738:	ead42c23          	sw	a3,-328(s0)
    173c:	ea042e23          	sw	zero,-324(s0)
    1740:	eb842503          	lw	a0,-328(s0)
    1744:	ebc42583          	lw	a1,-324(s0)
    1748:	00050793          	mv	a5,a0
    174c:	01b7d793          	srl	a5,a5,0x1b
    1750:	00058713          	mv	a4,a1
    1754:	00571713          	sll	a4,a4,0x5
    1758:	f2e42223          	sw	a4,-220(s0)
    175c:	f2442703          	lw	a4,-220(s0)
    1760:	00e7e7b3          	or	a5,a5,a4
    1764:	f2f42223          	sw	a5,-220(s0)
    1768:	00050793          	mv	a5,a0
    176c:	00579793          	sll	a5,a5,0x5
    1770:	f2f42023          	sw	a5,-224(s0)
    1774:	00060793          	mv	a5,a2
    1778:	fff78793          	add	a5,a5,-1
    177c:	f8f42023          	sw	a5,-128(s0)
    1780:	ead42823          	sw	a3,-336(s0)
    1784:	ea042a23          	sw	zero,-332(s0)
    1788:	eac42423          	sw	a2,-344(s0)
    178c:	ea042623          	sw	zero,-340(s0)
    1790:	eb042303          	lw	t1,-336(s0)
    1794:	eb442383          	lw	t2,-332(s0)
    1798:	00038793          	mv	a5,t2
    179c:	ea842803          	lw	a6,-344(s0)
    17a0:	eac42883          	lw	a7,-340(s0)
    17a4:	00080713          	mv	a4,a6
    17a8:	02e78733          	mul	a4,a5,a4
    17ac:	00088793          	mv	a5,a7
    17b0:	00030593          	mv	a1,t1
    17b4:	02b787b3          	mul	a5,a5,a1
    17b8:	00f70733          	add	a4,a4,a5
    17bc:	00030793          	mv	a5,t1
    17c0:	00080593          	mv	a1,a6
    17c4:	02b787b3          	mul	a5,a5,a1
    17c8:	00030593          	mv	a1,t1
    17cc:	00080513          	mv	a0,a6
    17d0:	02a5bab3          	mulhu	s5,a1,a0
    17d4:	00078a13          	mv	s4,a5
    17d8:	015707b3          	add	a5,a4,s5
    17dc:	00078a93          	mv	s5,a5
    17e0:	01ba5793          	srl	a5,s4,0x1b
    17e4:	005a9713          	sll	a4,s5,0x5
    17e8:	f0e42e23          	sw	a4,-228(s0)
    17ec:	f1c42703          	lw	a4,-228(s0)
    17f0:	00e7e7b3          	or	a5,a5,a4
    17f4:	f0f42e23          	sw	a5,-228(s0)
    17f8:	005a1793          	sll	a5,s4,0x5
    17fc:	f0f42c23          	sw	a5,-232(s0)
    1800:	00068d13          	mv	s10,a3
    1804:	00000d93          	li	s11,0
    1808:	00060c13          	mv	s8,a2
    180c:	00000c93          	li	s9,0
    1810:	038d8733          	mul	a4,s11,s8
    1814:	03ac87b3          	mul	a5,s9,s10
    1818:	00f70733          	add	a4,a4,a5
    181c:	038d07b3          	mul	a5,s10,s8
    1820:	038d39b3          	mulhu	s3,s10,s8
    1824:	00078913          	mv	s2,a5
    1828:	013707b3          	add	a5,a4,s3
    182c:	00078993          	mv	s3,a5
    1830:	01b95793          	srl	a5,s2,0x1b
    1834:	00599713          	sll	a4,s3,0x5
    1838:	f0e42a23          	sw	a4,-236(s0)
    183c:	f1442703          	lw	a4,-236(s0)
    1840:	00e7e7b3          	or	a5,a5,a4
    1844:	f0f42a23          	sw	a5,-236(s0)
    1848:	00591793          	sll	a5,s2,0x5
    184c:	f0f42823          	sw	a5,-240(s0)
    1850:	02c687b3          	mul	a5,a3,a2
    1854:	00279793          	sll	a5,a5,0x2
    1858:	00f78793          	add	a5,a5,15
    185c:	0047d793          	srl	a5,a5,0x4
    1860:	00479793          	sll	a5,a5,0x4
    1864:	40f10133          	sub	sp,sp,a5
    1868:	00010793          	mv	a5,sp
    186c:	00378793          	add	a5,a5,3
    1870:	0027d793          	srl	a5,a5,0x2
    1874:	00279793          	sll	a5,a5,0x2
    1878:	f6f42e23          	sw	a5,-132(s0)
    187c:	fa042e23          	sw	zero,-68(s0)
    1880:	0640006f          	j	18e4 <.L122>

00001884 <.L125>:
    1884:	fa042c23          	sw	zero,-72(s0)
    1888:	0440006f          	j	18cc <.L123>

0000188c <.L124>:
    188c:	00000097          	auipc	ra,0x0
    1890:	000080e7          	jalr	ra # 188c <.L124>
    1894:	00050793          	mv	a5,a0
    1898:	01879693          	sll	a3,a5,0x18
    189c:	4186d693          	sra	a3,a3,0x18
    18a0:	f9442703          	lw	a4,-108(s0)
    18a4:	fbc42783          	lw	a5,-68(s0)
    18a8:	ea042603          	lw	a2,-352(s0)
    18ac:	02f607b3          	mul	a5,a2,a5
    18b0:	00f70733          	add	a4,a4,a5
    18b4:	fb842783          	lw	a5,-72(s0)
    18b8:	00f707b3          	add	a5,a4,a5
    18bc:	00d78023          	sb	a3,0(a5)
    18c0:	fb842783          	lw	a5,-72(s0)
    18c4:	00178793          	add	a5,a5,1
    18c8:	faf42c23          	sw	a5,-72(s0)

000018cc <.L123>:
    18cc:	fb842703          	lw	a4,-72(s0)
    18d0:	fa442783          	lw	a5,-92(s0)
    18d4:	faf76ce3          	bltu	a4,a5,188c <.L124>
    18d8:	fbc42783          	lw	a5,-68(s0)
    18dc:	00178793          	add	a5,a5,1
    18e0:	faf42e23          	sw	a5,-68(s0)

000018e4 <.L122>:
    18e4:	fbc42703          	lw	a4,-68(s0)
    18e8:	fa842783          	lw	a5,-88(s0)
    18ec:	f8f76ce3          	bltu	a4,a5,1884 <.L125>
    18f0:	000007b7          	lui	a5,0x0
    18f4:	00078513          	mv	a0,a5
    18f8:	00000097          	auipc	ra,0x0
    18fc:	000080e7          	jalr	ra # 18f8 <.L122+0x14>
    1900:	fa042a23          	sw	zero,-76(s0)
    1904:	0600006f          	j	1964 <.L126>

00001908 <.L129>:
    1908:	fa042823          	sw	zero,-80(s0)
    190c:	0400006f          	j	194c <.L127>

00001910 <.L128>:
    1910:	00000097          	auipc	ra,0x0
    1914:	000080e7          	jalr	ra # 1910 <.L128>
    1918:	00050793          	mv	a5,a0
    191c:	01879693          	sll	a3,a5,0x18
    1920:	4186d693          	sra	a3,a3,0x18
    1924:	f8842703          	lw	a4,-120(s0)
    1928:	fb442783          	lw	a5,-76(s0)
    192c:	02f487b3          	mul	a5,s1,a5
    1930:	00f70733          	add	a4,a4,a5
    1934:	fb042783          	lw	a5,-80(s0)
    1938:	00f707b3          	add	a5,a4,a5
    193c:	00d78023          	sb	a3,0(a5) # 0 <MATMUL>
    1940:	fb042783          	lw	a5,-80(s0)
    1944:	00178793          	add	a5,a5,1
    1948:	faf42823          	sw	a5,-80(s0)

0000194c <.L127>:
    194c:	fb042703          	lw	a4,-80(s0)
    1950:	fa042783          	lw	a5,-96(s0)
    1954:	faf76ee3          	bltu	a4,a5,1910 <.L128>
    1958:	fb442783          	lw	a5,-76(s0)
    195c:	00178793          	add	a5,a5,1
    1960:	faf42a23          	sw	a5,-76(s0)

00001964 <.L126>:
    1964:	fb442703          	lw	a4,-76(s0)
    1968:	fa442783          	lw	a5,-92(s0)
    196c:	f8f76ee3          	bltu	a4,a5,1908 <.L129>
    1970:	000007b7          	lui	a5,0x0
    1974:	00078513          	mv	a0,a5
    1978:	00000097          	auipc	ra,0x0
    197c:	000080e7          	jalr	ra # 1978 <.L126+0x14>
    1980:	000007b7          	lui	a5,0x0
    1984:	00078513          	mv	a0,a5
    1988:	00000097          	auipc	ra,0x0
    198c:	000080e7          	jalr	ra # 1988 <.L126+0x24>
    1990:	000007b7          	lui	a5,0x0
    1994:	00078513          	mv	a0,a5
    1998:	00000097          	auipc	ra,0x0
    199c:	000080e7          	jalr	ra # 1998 <.L126+0x34>
    19a0:	fa842703          	lw	a4,-88(s0)
    19a4:	fa442783          	lw	a5,-92(s0)
    19a8:	f9442603          	lw	a2,-108(s0)
    19ac:	00078593          	mv	a1,a5
    19b0:	00070513          	mv	a0,a4
    19b4:	00000097          	auipc	ra,0x0
    19b8:	000080e7          	jalr	ra # 19b4 <.L126+0x50>
    19bc:	000007b7          	lui	a5,0x0
    19c0:	00078513          	mv	a0,a5
    19c4:	00000097          	auipc	ra,0x0
    19c8:	000080e7          	jalr	ra # 19c4 <.L126+0x60>
    19cc:	fa442703          	lw	a4,-92(s0)
    19d0:	fa042783          	lw	a5,-96(s0)
    19d4:	f8842603          	lw	a2,-120(s0)
    19d8:	00078593          	mv	a1,a5
    19dc:	00070513          	mv	a0,a4
    19e0:	00000097          	auipc	ra,0x0
    19e4:	000080e7          	jalr	ra # 19e0 <.L126+0x7c>
    19e8:	00100793          	li	a5,1
    19ec:	b0079073          	csrw	mcycle,a5
    19f0:	00100793          	li	a5,1
    19f4:	30679073          	csrw	mcounteren,a5
    19f8:	f7c42783          	lw	a5,-132(s0)
    19fc:	f8842703          	lw	a4,-120(s0)
    1a00:	f9442683          	lw	a3,-108(s0)
    1a04:	fa042603          	lw	a2,-96(s0)
    1a08:	fa442583          	lw	a1,-92(s0)
    1a0c:	fa842503          	lw	a0,-88(s0)
    1a10:	00000097          	auipc	ra,0x0
    1a14:	000080e7          	jalr	ra # 1a10 <.L126+0xac>
    1a18:	00000793          	li	a5,0
    1a1c:	30679073          	csrw	mcounteren,a5
    1a20:	00000097          	auipc	ra,0x0
    1a24:	000080e7          	jalr	ra # 1a20 <.L126+0xbc>
    1a28:	f6a42c23          	sw	a0,-136(s0)
    1a2c:	000007b7          	lui	a5,0x0
    1a30:	00078513          	mv	a0,a5
    1a34:	00000097          	auipc	ra,0x0
    1a38:	000080e7          	jalr	ra # 1a34 <.L126+0xd0>
    1a3c:	f7842783          	lw	a5,-136(s0)
    1a40:	00078513          	mv	a0,a5
    1a44:	00000097          	auipc	ra,0x0
    1a48:	000080e7          	jalr	ra # 1a44 <.L126+0xe0>
    1a4c:	000007b7          	lui	a5,0x0
    1a50:	00078513          	mv	a0,a5
    1a54:	00000097          	auipc	ra,0x0
    1a58:	000080e7          	jalr	ra # 1a54 <.L126+0xf0>
    1a5c:	000007b7          	lui	a5,0x0
    1a60:	00078513          	mv	a0,a5
    1a64:	00000097          	auipc	ra,0x0
    1a68:	000080e7          	jalr	ra # 1a64 <.L126+0x100>
    1a6c:	fa842703          	lw	a4,-88(s0)
    1a70:	fa042783          	lw	a5,-96(s0)
    1a74:	f7c42603          	lw	a2,-132(s0)
    1a78:	00078593          	mv	a1,a5
    1a7c:	00070513          	mv	a0,a4
    1a80:	00000097          	auipc	ra,0x0
    1a84:	000080e7          	jalr	ra # 1a80 <.L126+0x11c>
    1a88:	000007b7          	lui	a5,0x0
    1a8c:	00078513          	mv	a0,a5
    1a90:	00000097          	auipc	ra,0x0
    1a94:	000080e7          	jalr	ra # 1a90 <.L126+0x12c>
    1a98:	00100793          	li	a5,1
    1a9c:	b0079073          	csrw	mcycle,a5
    1aa0:	00100793          	li	a5,1
    1aa4:	30679073          	csrw	mcounteren,a5
    1aa8:	fa842503          	lw	a0,-88(s0)
    1aac:	fa442583          	lw	a1,-92(s0)
    1ab0:	fa042603          	lw	a2,-96(s0)
    1ab4:	f7c42783          	lw	a5,-132(s0)
    1ab8:	f8842703          	lw	a4,-120(s0)
    1abc:	f9442683          	lw	a3,-108(s0)
    1ac0:	00000097          	auipc	ra,0x0
    1ac4:	000080e7          	jalr	ra # 1ac0 <.L126+0x15c>
    1ac8:	00000793          	li	a5,0
    1acc:	30679073          	csrw	mcounteren,a5
    1ad0:	00000097          	auipc	ra,0x0
    1ad4:	000080e7          	jalr	ra # 1ad0 <.L126+0x16c>
    1ad8:	f6a42a23          	sw	a0,-140(s0)
    1adc:	000007b7          	lui	a5,0x0
    1ae0:	00078513          	mv	a0,a5
    1ae4:	00000097          	auipc	ra,0x0
    1ae8:	000080e7          	jalr	ra # 1ae4 <.L126+0x180>
    1aec:	f7442783          	lw	a5,-140(s0)
    1af0:	00078513          	mv	a0,a5
    1af4:	00000097          	auipc	ra,0x0
    1af8:	000080e7          	jalr	ra # 1af4 <.L126+0x190>
    1afc:	000007b7          	lui	a5,0x0
    1b00:	00078513          	mv	a0,a5
    1b04:	00000097          	auipc	ra,0x0
    1b08:	000080e7          	jalr	ra # 1b04 <.L126+0x1a0>
    1b0c:	ea442103          	lw	sp,-348(s0)
    1b10:	819ff06f          	j	1328 <.L130>
